---
triple:          'arm64-apple-darwin'
binary-path:     '/Users/krisztiancsuta/Documents/GitHub/STL_Slicer/Code_Final/Source_code/main'
relocations:
  - { offsetInCU: 0x2D97, offset: 0x2D97, size: 0x8, addend: 0x0, symName: __ZNSt3__124__put_character_sequenceB8ue170006IcNS_11char_traitsIcEEEERNS_13basic_ostreamIT_T0_EES7_PKS4_m, symObjAddr: 0x584, symBinAddr: 0x10000377C, symSize: 0x1F4 }
  - { offsetInCU: 0x46E4, offset: 0x46E4, size: 0x8, addend: 0x0, symName: __ZNSt3__1lsB8ue170006INS_11char_traitsIcEEEERNS_13basic_ostreamIcT_EES6_PKc, symObjAddr: 0x6C, symBinAddr: 0x100003264, symSize: 0x48 }
  - { offsetInCU: 0x4735, offset: 0x4735, size: 0x8, addend: 0x0, symName: __ZNSt3__15flushB8ue170006IcNS_11char_traitsIcEEEERNS_13basic_ostreamIT_T0_EES7_, symObjAddr: 0x524, symBinAddr: 0x10000371C, symSize: 0x28 }
  - { offsetInCU: 0x4775, offset: 0x4775, size: 0x8, addend: 0x0, symName: __ZNSt3__116__pad_and_outputB8ue170006IcNS_11char_traitsIcEEEENS_19ostreambuf_iteratorIT_T0_EES6_PKS4_S8_S8_RNS_8ios_baseES4_, symObjAddr: 0x7DC, symBinAddr: 0x1000039D4, symSize: 0x248 }
  - { offsetInCU: 0x4844, offset: 0x4844, size: 0x8, addend: 0x0, symName: __ZNSt3__112__to_addressB8ue170006IKcEEPT_S3_, symObjAddr: 0xD58, symBinAddr: 0x100003F50, symSize: 0x14 }
  - { offsetInCU: 0x4879, offset: 0x4879, size: 0x8, addend: 0x0, symName: __ZNSt3__130__libcpp_is_constant_evaluatedB8ue170006Ev, symObjAddr: 0xE84, symBinAddr: 0x10000407C, symSize: 0xC }
  - { offsetInCU: 0x48C9, offset: 0x48C9, size: 0x8, addend: 0x0, symName: __ZNSt3__19use_facetB8ue170006INS_5ctypeIcEEEERKT_RKNS_6localeE, symObjAddr: 0x103C, symBinAddr: 0x100004234, symSize: 0x2C }
  - { offsetInCU: 0x4D96, offset: 0x4D96, size: 0x8, addend: 0x0, symName: __ZNSt3__118__constexpr_strlenB8ue170006EPKc, symObjAddr: 0x10D4, symBinAddr: 0x1000042CC, symSize: 0x24 }
  - { offsetInCU: 0x7363, offset: 0x7363, size: 0x8, addend: 0x0, symName: __ZlsRNSt3__113basic_ostreamIcNS_11char_traitsIcEEEERK5Facet, symObjAddr: 0x0, symBinAddr: 0x1000031F8, symSize: 0x6C }
  - { offsetInCU: 0x7699, offset: 0x7699, size: 0x8, addend: 0x0, symName: __ZN5Facet17PlaneIntersectionERK5Plane, symObjAddr: 0xB4, symBinAddr: 0x1000032AC, symSize: 0x3C8 }
  - { offsetInCU: 0x7760, offset: 0x7760, size: 0x8, addend: 0x0, symName: __ZN6VectorC1Eddd, symObjAddr: 0x47C, symBinAddr: 0x100003674, symSize: 0x44 }
  - { offsetInCU: 0x77B2, offset: 0x77B2, size: 0x8, addend: 0x0, symName: __ZNK5Facet5printERNSt3__113basic_ostreamIcNS0_11char_traitsIcEEEE, symObjAddr: 0x4C0, symBinAddr: 0x1000036B8, symSize: 0x38 }
  - { offsetInCU: 0x77E6, offset: 0x77E6, size: 0x8, addend: 0x0, symName: __ZNSt3__113basic_ostreamIcNS_11char_traitsIcEEElsB8ue170006EPFRS3_S4_E, symObjAddr: 0x4F8, symBinAddr: 0x1000036F0, symSize: 0x2C }
  - { offsetInCU: 0x7818, offset: 0x7818, size: 0x8, addend: 0x0, symName: __ZN6VectorC2Eddd, symObjAddr: 0x54C, symBinAddr: 0x100003744, symSize: 0x38 }
  - { offsetInCU: 0x786A, offset: 0x786A, size: 0x8, addend: 0x0, symName: __ZNSt3__111char_traitsIcE6lengthB8ue170006EPKc, symObjAddr: 0x778, symBinAddr: 0x100003970, symSize: 0x48 }
  - { offsetInCU: 0x78AA, offset: 0x78AA, size: 0x8, addend: 0x0, symName: __ZNKSt3__113basic_ostreamIcNS_11char_traitsIcEEE6sentrycvbB8ue170006Ev, symObjAddr: 0x7C0, symBinAddr: 0x1000039B8, symSize: 0x1C }
  - { offsetInCU: 0x78CE, offset: 0x78CE, size: 0x8, addend: 0x0, symName: __ZNSt3__119ostreambuf_iteratorIcNS_11char_traitsIcEEEC1B8ue170006ERNS_13basic_ostreamIcS2_EE, symObjAddr: 0xA24, symBinAddr: 0x100003C1C, symSize: 0x34 }
  - { offsetInCU: 0x7904, offset: 0x7904, size: 0x8, addend: 0x0, symName: __ZNKSt3__18ios_base5flagsB8ue170006Ev, symObjAddr: 0xA58, symBinAddr: 0x100003C50, symSize: 0x18 }
  - { offsetInCU: 0x792A, offset: 0x792A, size: 0x8, addend: 0x0, symName: __ZNKSt3__19basic_iosIcNS_11char_traitsIcEEE4fillB8ue170006Ev, symObjAddr: 0xA70, symBinAddr: 0x100003C68, symSize: 0x64 }
  - { offsetInCU: 0x7950, offset: 0x7950, size: 0x8, addend: 0x0, symName: __ZNKSt3__119ostreambuf_iteratorIcNS_11char_traitsIcEEE6failedB8ue170006Ev, symObjAddr: 0xAD4, symBinAddr: 0x100003CCC, symSize: 0x24 }
  - { offsetInCU: 0x7974, offset: 0x7974, size: 0x8, addend: 0x0, symName: __ZNSt3__19basic_iosIcNS_11char_traitsIcEEE8setstateB8ue170006Ej, symObjAddr: 0xAF8, symBinAddr: 0x100003CF0, symSize: 0x2C }
  - { offsetInCU: 0x79A7, offset: 0x79A7, size: 0x8, addend: 0x0, symName: __ZNKSt3__18ios_base5widthB8ue170006Ev, symObjAddr: 0xB30, symBinAddr: 0x100003D28, symSize: 0x18 }
  - { offsetInCU: 0x79CD, offset: 0x79CD, size: 0x8, addend: 0x0, symName: __ZNSt3__115basic_streambufIcNS_11char_traitsIcEEE5sputnB8ue170006EPKcl, symObjAddr: 0xB48, symBinAddr: 0x100003D40, symSize: 0x3C }
  - { offsetInCU: 0x7A0D, offset: 0x7A0D, size: 0x8, addend: 0x0, symName: __ZNSt3__112basic_stringIcNS_11char_traitsIcEENS_9allocatorIcEEEC1B8ue170006Emc, symObjAddr: 0xB84, symBinAddr: 0x100003D7C, symSize: 0x3C }
  - { offsetInCU: 0x7A53, offset: 0x7A53, size: 0x8, addend: 0x0, symName: __ZNKSt3__112basic_stringIcNS_11char_traitsIcEENS_9allocatorIcEEE4dataB8ue170006Ev, symObjAddr: 0xBC0, symBinAddr: 0x100003DB8, symSize: 0x28 }
  - { offsetInCU: 0x7A77, offset: 0x7A77, size: 0x8, addend: 0x0, symName: __ZNSt3__18ios_base5widthB8ue170006El, symObjAddr: 0xBE8, symBinAddr: 0x100003DE0, symSize: 0x2C }
  - { offsetInCU: 0x7ABB, offset: 0x7ABB, size: 0x8, addend: 0x0, symName: __ZNSt3__112basic_stringIcNS_11char_traitsIcEENS_9allocatorIcEEEC2B8ue170006Emc, symObjAddr: 0xC14, symBinAddr: 0x100003E0C, symSize: 0x4C }
  - { offsetInCU: 0x7B06, offset: 0x7B06, size: 0x8, addend: 0x0, symName: __ZNSt3__117__compressed_pairINS_12basic_stringIcNS_11char_traitsIcEENS_9allocatorIcEEE5__repES5_EC1B8ue170006INS_18__default_init_tagESA_EEOT_OT0_, symObjAddr: 0xC60, symBinAddr: 0x100003E58, symSize: 0x3C }
  - { offsetInCU: 0x7B5C, offset: 0x7B5C, size: 0x8, addend: 0x0, symName: __ZNSt3__117__compressed_pairINS_12basic_stringIcNS_11char_traitsIcEENS_9allocatorIcEEE5__repES5_EC2B8ue170006INS_18__default_init_tagESA_EEOT_OT0_, symObjAddr: 0xC9C, symBinAddr: 0x100003E94, symSize: 0x3C }
  - { offsetInCU: 0x7BB2, offset: 0x7BB2, size: 0x8, addend: 0x0, symName: __ZNSt3__122__compressed_pair_elemINS_12basic_stringIcNS_11char_traitsIcEENS_9allocatorIcEEE5__repELi0ELb0EEC2B8ue170006ENS_18__default_init_tagE, symObjAddr: 0xCD8, symBinAddr: 0x100003ED0, symSize: 0x14 }
  - { offsetInCU: 0x7BE4, offset: 0x7BE4, size: 0x8, addend: 0x0, symName: __ZNSt3__122__compressed_pair_elemINS_9allocatorIcEELi1ELb1EEC2B8ue170006ENS_18__default_init_tagE, symObjAddr: 0xCEC, symBinAddr: 0x100003EE4, symSize: 0x2C }
  - { offsetInCU: 0x7C16, offset: 0x7C16, size: 0x8, addend: 0x0, symName: __ZNSt3__19allocatorIcEC2B8ue170006Ev, symObjAddr: 0xD18, symBinAddr: 0x100003F10, symSize: 0x2C }
  - { offsetInCU: 0x7C3E, offset: 0x7C3E, size: 0x8, addend: 0x0, symName: __ZNSt3__116__non_trivial_ifILb1ENS_9allocatorIcEEEC2B8ue170006Ev, symObjAddr: 0xD44, symBinAddr: 0x100003F3C, symSize: 0x14 }
  - { offsetInCU: 0x7C66, offset: 0x7C66, size: 0x8, addend: 0x0, symName: __ZNKSt3__112basic_stringIcNS_11char_traitsIcEENS_9allocatorIcEEE13__get_pointerB8ue170006Ev, symObjAddr: 0xD6C, symBinAddr: 0x100003F64, symSize: 0x54 }
  - { offsetInCU: 0x7C8A, offset: 0x7C8A, size: 0x8, addend: 0x0, symName: __ZNKSt3__112basic_stringIcNS_11char_traitsIcEENS_9allocatorIcEEE9__is_longB8ue170006Ev, symObjAddr: 0xDC0, symBinAddr: 0x100003FB8, symSize: 0x74 }
  - { offsetInCU: 0x7CAE, offset: 0x7CAE, size: 0x8, addend: 0x0, symName: __ZNKSt3__112basic_stringIcNS_11char_traitsIcEENS_9allocatorIcEEE18__get_long_pointerB8ue170006Ev, symObjAddr: 0xE34, symBinAddr: 0x10000402C, symSize: 0x28 }
  - { offsetInCU: 0x7CD2, offset: 0x7CD2, size: 0x8, addend: 0x0, symName: __ZNKSt3__112basic_stringIcNS_11char_traitsIcEENS_9allocatorIcEEE19__get_short_pointerB8ue170006Ev, symObjAddr: 0xE5C, symBinAddr: 0x100004054, symSize: 0x28 }
  - { offsetInCU: 0x7CF6, offset: 0x7CF6, size: 0x8, addend: 0x0, symName: __ZNKSt3__117__compressed_pairINS_12basic_stringIcNS_11char_traitsIcEENS_9allocatorIcEEE5__repES5_E5firstB8ue170006Ev, symObjAddr: 0xE90, symBinAddr: 0x100004088, symSize: 0x24 }
  - { offsetInCU: 0x7D1A, offset: 0x7D1A, size: 0x8, addend: 0x0, symName: __ZNKSt3__122__compressed_pair_elemINS_12basic_stringIcNS_11char_traitsIcEENS_9allocatorIcEEE5__repELi0ELb0EE5__getB8ue170006Ev, symObjAddr: 0xEB4, symBinAddr: 0x1000040AC, symSize: 0x14 }
  - { offsetInCU: 0x7D3E, offset: 0x7D3E, size: 0x8, addend: 0x0, symName: __ZNSt3__114pointer_traitsIPKcE10pointer_toB8ue170006ERS1_, symObjAddr: 0xEC8, symBinAddr: 0x1000040C0, symSize: 0x14 }
  - { offsetInCU: 0x7D60, offset: 0x7D60, size: 0x8, addend: 0x0, symName: __ZNSt3__119ostreambuf_iteratorIcNS_11char_traitsIcEEEC2B8ue170006ERNS_13basic_ostreamIcS2_EE, symObjAddr: 0xEDC, symBinAddr: 0x1000040D4, symSize: 0x68 }
  - { offsetInCU: 0x7D96, offset: 0x7D96, size: 0x8, addend: 0x0, symName: __ZNKSt3__19basic_iosIcNS_11char_traitsIcEEE5rdbufB8ue170006Ev, symObjAddr: 0xF44, symBinAddr: 0x10000413C, symSize: 0x24 }
  - { offsetInCU: 0x7DBC, offset: 0x7DBC, size: 0x8, addend: 0x0, symName: __ZNKSt3__18ios_base5rdbufB8ue170006Ev, symObjAddr: 0xF68, symBinAddr: 0x100004160, symSize: 0x18 }
  - { offsetInCU: 0x7DE0, offset: 0x7DE0, size: 0x8, addend: 0x0, symName: __ZNSt3__111char_traitsIcE11eq_int_typeB8ue170006Eii, symObjAddr: 0xF80, symBinAddr: 0x100004178, symSize: 0x28 }
  - { offsetInCU: 0x7E12, offset: 0x7E12, size: 0x8, addend: 0x0, symName: __ZNSt3__111char_traitsIcE3eofB8ue170006Ev, symObjAddr: 0xFA8, symBinAddr: 0x1000041A0, symSize: 0x8 }
  - { offsetInCU: 0x7E25, offset: 0x7E25, size: 0x8, addend: 0x0, symName: __ZNKSt3__19basic_iosIcNS_11char_traitsIcEEE5widenB8ue170006Ec, symObjAddr: 0xFB0, symBinAddr: 0x1000041A8, symSize: 0x8C }
  - { offsetInCU: 0x7E91, offset: 0x7E91, size: 0x8, addend: 0x0, symName: __ZNKSt3__15ctypeIcE5widenB8ue170006Ec, symObjAddr: 0x1068, symBinAddr: 0x100004260, symSize: 0x38 }
  - { offsetInCU: 0x7EC4, offset: 0x7EC4, size: 0x8, addend: 0x0, symName: __ZNSt3__18ios_base8setstateB8ue170006Ej, symObjAddr: 0x10A0, symBinAddr: 0x100004298, symSize: 0x34 }
  - { offsetInCU: 0x4C, offset: 0x7FB5, size: 0x8, addend: 0x0, symName: __ZN7STLFile4minZE, symObjAddr: 0x2F8C0, symBinAddr: 0x100010000, symSize: 0x0 }
  - { offsetInCU: 0x5830, offset: 0xD799, size: 0x8, addend: 0x0, symName: __ZNSt3__1eqB8ue170006IcNS_11char_traitsIcEENS_9allocatorIcEEEEbRKNS_12basic_stringIT_T0_T1_EEPKS6_, symObjAddr: 0x5D8, symBinAddr: 0x1000048C8, symSize: 0xC0 }
  - { offsetInCU: 0x663C, offset: 0xE5A5, size: 0x8, addend: 0x0, symName: __ZNSt3__17getlineB8ue170006IcNS_11char_traitsIcEENS_9allocatorIcEEEERNS_13basic_istreamIT_T0_EES9_RNS_12basic_stringIS6_S7_T1_EE, symObjAddr: 0x878, symBinAddr: 0x100004B5C, symSize: 0x5C }
  - { offsetInCU: 0x6A29, offset: 0xE992, size: 0x8, addend: 0x0, symName: __ZNSt3__112__to_addressB8ue170006I5FacetEEPT_S3_, symObjAddr: 0x15B8, symBinAddr: 0x100005820, symSize: 0x14 }
  - { offsetInCU: 0x6A5E, offset: 0xE9C7, size: 0x8, addend: 0x0, symName: __ZNSt3__119__libcpp_deallocateB8ue170006EPvmm, symObjAddr: 0x16D0, symBinAddr: 0x10000592C, symSize: 0x30 }
  - { offsetInCU: 0x6AA7, offset: 0xEA10, size: 0x8, addend: 0x0, symName: __ZNSt3__127__do_deallocate_handle_sizeB8ue170006IJEEEvPvmDpT_, symObjAddr: 0x1700, symBinAddr: 0x10000595C, symSize: 0x28 }
  - { offsetInCU: 0x6AE7, offset: 0xEA50, size: 0x8, addend: 0x0, symName: __ZNSt3__124__libcpp_operator_deleteB8ue170006IJPvEEEvDpT_, symObjAddr: 0x1728, symBinAddr: 0x100005984, symSize: 0x24 }
  - { offsetInCU: 0x6B1E, offset: 0xEA87, size: 0x8, addend: 0x0, symName: __ZNSt3__117__libcpp_allocateB8ue170006Emm, symObjAddr: 0x2198, symBinAddr: 0x100006088, symSize: 0x28 }
  - { offsetInCU: 0x6B5B, offset: 0xEAC4, size: 0x8, addend: 0x0, symName: __ZNSt3__121__libcpp_operator_newB8ue170006IJmEEEPvDpT_, symObjAddr: 0x21D4, symBinAddr: 0x1000060C4, symSize: 0x24 }
  - { offsetInCU: 0x6B95, offset: 0xEAFE, size: 0x8, addend: 0x0, symName: __ZNSt3__17getlineB8ue170006IcNS_11char_traitsIcEENS_9allocatorIcEEEERNS_13basic_istreamIT_T0_EES9_RNS_12basic_stringIS6_S7_T1_EES6_, symObjAddr: 0x2230, symBinAddr: 0x100006120, symSize: 0x238 }
  - { offsetInCU: 0x6E92, offset: 0xEDFB, size: 0x8, addend: 0x0, symName: __ZNSt3__110__str_findB8ue170006IcmNS_11char_traitsIcEELm18446744073709551615EEET0_PKT_S3_S6_S3_S3_, symObjAddr: 0x2A30, symBinAddr: 0x1000067CC, symSize: 0xE4 }
  - { offsetInCU: 0x6F39, offset: 0xEEA2, size: 0x8, addend: 0x0, symName: __ZNSt3__118__search_substringB8ue170006IcNS_11char_traitsIcEEEEPKT_S5_S5_S5_S5_, symObjAddr: 0x2B14, symBinAddr: 0x1000068B0, symSize: 0x154 }
  - { offsetInCU: 0x6FD3, offset: 0xEF3C, size: 0x8, addend: 0x0, symName: __ZNSt3__118__constexpr_memchrB8ue170006IKccEEPT_S3_T0_m, symObjAddr: 0x2D50, symBinAddr: 0x100006AEC, symSize: 0xC0 }
  - { offsetInCU: 0x7049, offset: 0xEFB2, size: 0x8, addend: 0x0, symName: __ZNSt3__13maxB8ue170006ImEERKT_S3_S3_, symObjAddr: 0x3654, symBinAddr: 0x1000073F0, symSize: 0x2C }
  - { offsetInCU: 0x708C, offset: 0xEFF5, size: 0x8, addend: 0x0, symName: __ZNSt3__13minB8ue170006ImEERKT_S3_S3_, symObjAddr: 0x3680, symBinAddr: 0x10000741C, symSize: 0x2C }
  - { offsetInCU: 0x72DA, offset: 0xF243, size: 0x8, addend: 0x0, symName: __ZNSt3__13minB8ue170006ImNS_6__lessIvvEEEERKT_S5_S5_T0_, symObjAddr: 0x370C, symBinAddr: 0x1000074A8, symSize: 0x54 }
  - { offsetInCU: 0x737B, offset: 0xF2E4, size: 0x8, addend: 0x0, symName: __ZNSt3__120__throw_length_errorB8ue170006EPKc, symObjAddr: 0x37F4, symBinAddr: 0x100007590, symSize: 0x64 }
  - { offsetInCU: 0x73A6, offset: 0xF30F, size: 0x8, addend: 0x0, symName: __ZNSt3__13maxB8ue170006ImNS_6__lessIvvEEEERKT_S5_S5_T0_, symObjAddr: 0x38D8, symBinAddr: 0x100007674, symSize: 0x54 }
  - { offsetInCU: 0x7400, offset: 0xF369, size: 0x8, addend: 0x0, symName: __ZNSt3__119__allocate_at_leastB8ue170006INS_9allocatorI5FacetEEEENS_19__allocation_resultINS_16allocator_traitsIT_E7pointerEEERS6_m, symObjAddr: 0x3A48, symBinAddr: 0x1000077E4, symSize: 0x40 }
  - { offsetInCU: 0x7443, offset: 0xF3AC, size: 0x8, addend: 0x0, symName: __ZNSt3__142__uninitialized_allocator_move_if_noexceptB8ue170006INS_9allocatorI5FacetEENS_16reverse_iteratorIPS2_EES6_S2_vEET1_RT_T0_SA_S7_, symObjAddr: 0x3C30, symBinAddr: 0x1000079CC, symSize: 0xE8 }
  - { offsetInCU: 0x74C2, offset: 0xF42B, size: 0x8, addend: 0x0, symName: __ZNSt3__14swapB8ue170006IP5FacetEEvRT_S4_, symObjAddr: 0x3D64, symBinAddr: 0x100007B00, symSize: 0x3C }
  - { offsetInCU: 0x7513, offset: 0xF47C, size: 0x8, addend: 0x0, symName: __ZNSt3__1neB8ue170006IP5FacetS2_EEbRKNS_16reverse_iteratorIT_EERKNS3_IT0_EE, symObjAddr: 0x3E68, symBinAddr: 0x100007C04, symSize: 0x48 }
  - { offsetInCU: 0x7586, offset: 0xF4EF, size: 0x8, addend: 0x0, symName: __ZNSt3__114__construct_atB8ue170006I5FacetJS1_EPS1_EEPT_S4_DpOT0_, symObjAddr: 0x3EB0, symBinAddr: 0x100007C4C, symSize: 0x40 }
  - { offsetInCU: 0x75FA, offset: 0xF563, size: 0x8, addend: 0x0, symName: __ZNSt3__112__to_addressB8ue170006INS_16reverse_iteratorIP5FacetEEvEEu7__decayIDTclsr19__to_address_helperIT_EE6__callclsr3stdE7declvalIRKS5_EEEEES7_, symObjAddr: 0x3EF0, symBinAddr: 0x100007C8C, symSize: 0x24 }
  - { offsetInCU: 0x7631, offset: 0xF59A, size: 0x8, addend: 0x0, symName: __ZNSt3__14moveB8ue170006INS_16reverse_iteratorIP5FacetEES4_EET0_T_S6_S5_, symObjAddr: 0x3F5C, symBinAddr: 0x100007CF8, symSize: 0x78 }
  - { offsetInCU: 0x76B5, offset: 0xF61E, size: 0x8, addend: 0x0, symName: __ZNSt3__16__moveB8ue170006INS_17_ClassicAlgPolicyENS_16reverse_iteratorIP5FacetEES5_S5_EENS_4pairIT0_T2_EES7_T1_S8_, symObjAddr: 0x4044, symBinAddr: 0x100007DE0, symSize: 0x64 }
  - { offsetInCU: 0x7721, offset: 0xF68A, size: 0x8, addend: 0x0, symName: __ZNSt3__123__dispatch_copy_or_moveB8ue170006INS_17_ClassicAlgPolicyENS_11__move_loopIS1_EENS_14__move_trivialENS_16reverse_iteratorIP5FacetEES8_S8_EENS_4pairIT2_T4_EESA_T3_SB_, symObjAddr: 0x40A8, symBinAddr: 0x100007E44, symSize: 0x64 }
  - { offsetInCU: 0x779F, offset: 0xF708, size: 0x8, addend: 0x0, symName: __ZNSt3__121__unwrap_and_dispatchB8ue170006INS_10__overloadINS_11__move_loopINS_17_ClassicAlgPolicyEEENS_14__move_trivialEEENS_16reverse_iteratorIP5FacetEESA_SA_Li0EEENS_4pairIT0_T2_EESC_T1_SD_, symObjAddr: 0x410C, symBinAddr: 0x100007EA8, symSize: 0x12C }
  - { offsetInCU: 0x7830, offset: 0xF799, size: 0x8, addend: 0x0, symName: __ZNSt3__114__unwrap_rangeB8ue170006INS_16reverse_iteratorIP5FacetEES4_EENS_4pairIT0_S6_EET_S8_, symObjAddr: 0x4238, symBinAddr: 0x100007FD4, symSize: 0x84 }
  - { offsetInCU: 0x7984, offset: 0xF8ED, size: 0x8, addend: 0x0, symName: __ZNSt3__113__unwrap_iterB8ue170006INS_16reverse_iteratorIP5FacetEENS_18__unwrap_iter_implIS4_Lb0EEELi0EEEDTclsrT0_8__unwrapclsr3stdE7declvalIT_EEEES8_, symObjAddr: 0x4358, symBinAddr: 0x1000080F4, symSize: 0x44 }
  - { offsetInCU: 0x79C9, offset: 0xF932, size: 0x8, addend: 0x0, symName: __ZNSt3__19make_pairB8ue170006INS_16reverse_iteratorIP5FacetEES4_EENS_4pairINS_18__unwrap_ref_decayIT_E4typeENS6_IT0_E4typeEEEOS7_OSA_, symObjAddr: 0x439C, symBinAddr: 0x100008138, symSize: 0x38 }
  - { offsetInCU: 0x7A18, offset: 0xF981, size: 0x8, addend: 0x0, symName: __ZNSt3__114__rewrap_rangeB8ue170006INS_16reverse_iteratorIP5FacetEES4_EET_S5_T0_, symObjAddr: 0x43D4, symBinAddr: 0x100008170, symSize: 0x5C }
  - { offsetInCU: 0x7A64, offset: 0xF9CD, size: 0x8, addend: 0x0, symName: __ZNSt3__113__rewrap_iterB8ue170006INS_16reverse_iteratorIP5FacetEES4_NS_18__unwrap_iter_implIS4_Lb0EEEEET_S7_T0_, symObjAddr: 0x4430, symBinAddr: 0x1000081CC, symSize: 0x88 }
  - { offsetInCU: 0x7D64, offset: 0xFCCD, size: 0x8, addend: 0x0, symName: __ZSt28__throw_bad_array_new_lengthB8ue170006v, symObjAddr: 0x2164, symBinAddr: 0x100006054, symSize: 0x34 }
  - { offsetInCU: 0x8188, offset: 0x100F1, size: 0x8, addend: 0x0, symName: __ZN7STLFile4maxZE, symObjAddr: 0x2F8C8, symBinAddr: 0x100010008, symSize: 0x0 }
  - { offsetInCU: 0x81F5, offset: 0x1015E, size: 0x8, addend: 0x0, symName: __ZNSt3__16vectorI5FacetNS_9allocatorIS1_EEE26__swap_out_circular_bufferERNS_14__split_bufferIS1_RS3_EE, symObjAddr: 0x3488, symBinAddr: 0x100007224, symSize: 0x110 }
  - { offsetInCU: 0x9FDB, offset: 0x11F44, size: 0x8, addend: 0x0, symName: __ZN7STLFile11readSTLFileERKNSt3__112basic_stringIcNS0_11char_traitsIcEENS0_9allocatorIcEEEES8_, symObjAddr: 0x0, symBinAddr: 0x1000042F0, symSize: 0x5AC }
  - { offsetInCU: 0xA098, offset: 0x12001, size: 0x8, addend: 0x0, symName: __ZNSt3__16vectorI5FacetNS_9allocatorIS1_EEEC1B8ue170006Ev, symObjAddr: 0x5AC, symBinAddr: 0x10000489C, symSize: 0x2C }
  - { offsetInCU: 0xA1C7, offset: 0x12130, size: 0x8, addend: 0x0, symName: __ZNSt3__114basic_ifstreamIcNS_11char_traitsIcEEEC1ERKNS_12basic_stringIcS2_NS_9allocatorIcEEEEj, symObjAddr: 0x698, symBinAddr: 0x100004988, symSize: 0x17C }
  - { offsetInCU: 0xA210, offset: 0x12179, size: 0x8, addend: 0x0, symName: __ZNKSt3__114basic_ifstreamIcNS_11char_traitsIcEEE7is_openEv, symObjAddr: 0x814, symBinAddr: 0x100004B04, symSize: 0x2C }
  - { offsetInCU: 0xA236, offset: 0x1219F, size: 0x8, addend: 0x0, symName: __ZNSt3__112basic_stringIcNS_11char_traitsIcEENS_9allocatorIcEEEC1B8ue170006Ev, symObjAddr: 0x84C, symBinAddr: 0x100004B30, symSize: 0x2C }
  - { offsetInCU: 0xA25E, offset: 0x121C7, size: 0x8, addend: 0x0, symName: __ZNKSt3__19basic_iosIcNS_11char_traitsIcEEEcvPvB8ue170006Ev, symObjAddr: 0x8D4, symBinAddr: 0x100004BB8, symSize: 0x4C }
  - { offsetInCU: 0xA282, offset: 0x121EB, size: 0x8, addend: 0x0, symName: __ZNKSt3__112basic_stringIcNS_11char_traitsIcEENS_9allocatorIcEEE4findB8ue170006EPKcm, symObjAddr: 0x964, symBinAddr: 0x100004C04, symSize: 0x74 }
  - { offsetInCU: 0xA2C6, offset: 0x1222F, size: 0x8, addend: 0x0, symName: __ZNKSt3__112basic_stringIcNS_11char_traitsIcEENS_9allocatorIcEEE6substrB8ue170006Emm, symObjAddr: 0x9D8, symBinAddr: 0x100004C78, symSize: 0x68 }
  - { offsetInCU: 0xA358, offset: 0x122C1, size: 0x8, addend: 0x0, symName: __ZNSt3__119basic_istringstreamIcNS_11char_traitsIcEENS_9allocatorIcEEEC1B8ue170006ERKNS_12basic_stringIcS2_S4_EEj, symObjAddr: 0xA40, symBinAddr: 0x100004CE0, symSize: 0x108 }
  - { offsetInCU: 0xA3A3, offset: 0x1230C, size: 0x8, addend: 0x0, symName: __ZNSt3__119basic_istringstreamIcNS_11char_traitsIcEENS_9allocatorIcEEED1Ev, symObjAddr: 0xB48, symBinAddr: 0x100004DE8, symSize: 0x70 }
  - { offsetInCU: 0xA3CF, offset: 0x12338, size: 0x8, addend: 0x0, symName: __ZN5FacetC1E6VectorS0_S0_, symObjAddr: 0xBB8, symBinAddr: 0x100004E58, symSize: 0x90 }
  - { offsetInCU: 0xA421, offset: 0x1238A, size: 0x8, addend: 0x0, symName: __ZNSt3__16vectorI5FacetNS_9allocatorIS1_EEE9push_backB8ue170006ERKS1_, symObjAddr: 0xC48, symBinAddr: 0x100004EE8, symSize: 0x6C }
  - { offsetInCU: 0xA456, offset: 0x123BF, size: 0x8, addend: 0x0, symName: __ZNSt3__114basic_ifstreamIcNS_11char_traitsIcEEE5closeEv, symObjAddr: 0xCB4, symBinAddr: 0x100004F54, symSize: 0x58 }
  - { offsetInCU: 0xA481, offset: 0x123EA, size: 0x8, addend: 0x0, symName: __ZNSt3__114basic_ifstreamIcNS_11char_traitsIcEEED1Ev, symObjAddr: 0xD0C, symBinAddr: 0x100004FAC, symSize: 0x70 }
  - { offsetInCU: 0xA4AD, offset: 0x12416, size: 0x8, addend: 0x0, symName: __ZNSt3__16vectorI5FacetNS_9allocatorIS1_EEED1B8ue170006Ev, symObjAddr: 0xD7C, symBinAddr: 0x10000501C, symSize: 0x2C }
  - { offsetInCU: 0xA4D5, offset: 0x1243E, size: 0x8, addend: 0x0, symName: __ZNSt3__119basic_istringstreamIcNS_11char_traitsIcEENS_9allocatorIcEEED2Ev, symObjAddr: 0xDE0, symBinAddr: 0x100005048, symSize: 0x9C }
  - { offsetInCU: 0xA50D, offset: 0x12476, size: 0x8, addend: 0x0, symName: __ZTv0_n24_NSt3__119basic_istringstreamIcNS_11char_traitsIcEENS_9allocatorIcEEED1Ev, symObjAddr: 0xE7C, symBinAddr: 0x1000050E4, symSize: 0x28 }
  - { offsetInCU: 0xA529, offset: 0x12492, size: 0x8, addend: 0x0, symName: __ZNSt3__115basic_stringbufIcNS_11char_traitsIcEENS_9allocatorIcEEED1Ev, symObjAddr: 0xEA4, symBinAddr: 0x10000510C, symSize: 0x2C }
  - { offsetInCU: 0xA555, offset: 0x124BE, size: 0x8, addend: 0x0, symName: __ZNSt3__115basic_stringbufIcNS_11char_traitsIcEENS_9allocatorIcEEED2Ev, symObjAddr: 0xED0, symBinAddr: 0x100005138, symSize: 0x78 }
  - { offsetInCU: 0xA581, offset: 0x124EA, size: 0x8, addend: 0x0, symName: __ZN5FacetC2E6VectorS0_S0_, symObjAddr: 0xF48, symBinAddr: 0x1000051B0, symSize: 0xE0 }
  - { offsetInCU: 0xA5D3, offset: 0x1253C, size: 0x8, addend: 0x0, symName: __ZNSt3__114basic_ifstreamIcNS_11char_traitsIcEEED2Ev, symObjAddr: 0x1028, symBinAddr: 0x100005290, symSize: 0x9C }
  - { offsetInCU: 0xA60B, offset: 0x12574, size: 0x8, addend: 0x0, symName: __ZTv0_n24_NSt3__114basic_ifstreamIcNS_11char_traitsIcEEED1Ev, symObjAddr: 0x10C4, symBinAddr: 0x10000532C, symSize: 0x28 }
  - { offsetInCU: 0xA622, offset: 0x1258B, size: 0x8, addend: 0x0, symName: __ZNSt3__16vectorI5FacetNS_9allocatorIS1_EEEC2B8ue170006Ev, symObjAddr: 0x10EC, symBinAddr: 0x100005354, symSize: 0x44 }
  - { offsetInCU: 0xA654, offset: 0x125BD, size: 0x8, addend: 0x0, symName: __ZNSt3__117__compressed_pairIP5FacetNS_9allocatorIS1_EEEC1B8ue170006IDnNS_18__default_init_tagEEEOT_OT0_, symObjAddr: 0x1130, symBinAddr: 0x100005398, symSize: 0x3C }
  - { offsetInCU: 0xA6AA, offset: 0x12613, size: 0x8, addend: 0x0, symName: __ZNSt3__117__compressed_pairIP5FacetNS_9allocatorIS1_EEEC2B8ue170006IDnNS_18__default_init_tagEEEOT_OT0_, symObjAddr: 0x116C, symBinAddr: 0x1000053D4, symSize: 0x40 }
  - { offsetInCU: 0xA700, offset: 0x12669, size: 0x8, addend: 0x0, symName: __ZNSt3__122__compressed_pair_elemIP5FacetLi0ELb0EEC2B8ue170006IDnvEEOT_, symObjAddr: 0x11AC, symBinAddr: 0x100005414, symSize: 0x1C }
  - { offsetInCU: 0xA741, offset: 0x126AA, size: 0x8, addend: 0x0, symName: __ZNSt3__122__compressed_pair_elemINS_9allocatorI5FacetEELi1ELb1EEC2B8ue170006ENS_18__default_init_tagE, symObjAddr: 0x11C8, symBinAddr: 0x100005430, symSize: 0x2C }
  - { offsetInCU: 0xA773, offset: 0x126DC, size: 0x8, addend: 0x0, symName: __ZNSt3__19allocatorI5FacetEC2B8ue170006Ev, symObjAddr: 0x11F4, symBinAddr: 0x10000545C, symSize: 0x2C }
  - { offsetInCU: 0xA79B, offset: 0x12704, size: 0x8, addend: 0x0, symName: __ZNSt3__116__non_trivial_ifILb1ENS_9allocatorI5FacetEEEC2B8ue170006Ev, symObjAddr: 0x1220, symBinAddr: 0x100005488, symSize: 0x14 }
  - { offsetInCU: 0xA7C3, offset: 0x1272C, size: 0x8, addend: 0x0, symName: __ZNSt3__16vectorI5FacetNS_9allocatorIS1_EEED2B8ue170006Ev, symObjAddr: 0x1234, symBinAddr: 0x10000549C, symSize: 0x3C }
  - { offsetInCU: 0xA7EB, offset: 0x12754, size: 0x8, addend: 0x0, symName: __ZNSt3__16vectorI5FacetNS_9allocatorIS1_EEE16__destroy_vectorC1B8ue170006ERS4_, symObjAddr: 0x1270, symBinAddr: 0x1000054D8, symSize: 0x34 }
  - { offsetInCU: 0xA822, offset: 0x1278B, size: 0x8, addend: 0x0, symName: __ZNSt3__16vectorI5FacetNS_9allocatorIS1_EEE16__destroy_vectorclB8ue170006Ev, symObjAddr: 0x12A4, symBinAddr: 0x10000550C, symSize: 0x90 }
  - { offsetInCU: 0xA846, offset: 0x127AF, size: 0x8, addend: 0x0, symName: __ZNSt3__16vectorI5FacetNS_9allocatorIS1_EEE16__destroy_vectorC2B8ue170006ERS4_, symObjAddr: 0x1334, symBinAddr: 0x10000559C, symSize: 0x20 }
  - { offsetInCU: 0xA87D, offset: 0x127E6, size: 0x8, addend: 0x0, symName: __ZNSt3__16vectorI5FacetNS_9allocatorIS1_EEE7__clearB8ue170006Ev, symObjAddr: 0x1354, symBinAddr: 0x1000055BC, symSize: 0x28 }
  - { offsetInCU: 0xA8A1, offset: 0x1280A, size: 0x8, addend: 0x0, symName: __ZNKSt3__16vectorI5FacetNS_9allocatorIS1_EEE17__annotate_deleteB8ue170006Ev, symObjAddr: 0x137C, symBinAddr: 0x1000055E4, symSize: 0xD4 }
  - { offsetInCU: 0xA8C5, offset: 0x1282E, size: 0x8, addend: 0x0, symName: __ZNSt3__116allocator_traitsINS_9allocatorI5FacetEEE10deallocateB8ue170006ERS3_PS2_m, symObjAddr: 0x1450, symBinAddr: 0x1000056B8, symSize: 0x34 }
  - { offsetInCU: 0xA906, offset: 0x1286F, size: 0x8, addend: 0x0, symName: __ZNSt3__16vectorI5FacetNS_9allocatorIS1_EEE7__allocB8ue170006Ev, symObjAddr: 0x1484, symBinAddr: 0x1000056EC, symSize: 0x28 }
  - { offsetInCU: 0xA92A, offset: 0x12893, size: 0x8, addend: 0x0, symName: __ZNKSt3__16vectorI5FacetNS_9allocatorIS1_EEE8capacityB8ue170006Ev, symObjAddr: 0x14AC, symBinAddr: 0x100005714, symSize: 0x40 }
  - { offsetInCU: 0xA94E, offset: 0x128B7, size: 0x8, addend: 0x0, symName: __ZNSt3__16vectorI5FacetNS_9allocatorIS1_EEE22__base_destruct_at_endB8ue170006EPS1_, symObjAddr: 0x14EC, symBinAddr: 0x100005754, symSize: 0xA0 }
  - { offsetInCU: 0xA990, offset: 0x128F9, size: 0x8, addend: 0x0, symName: __ZNSt3__116allocator_traitsINS_9allocatorI5FacetEEE7destroyB8ue170006IS2_vEEvRS3_PT_, symObjAddr: 0x158C, symBinAddr: 0x1000057F4, symSize: 0x2C }
  - { offsetInCU: 0xA9CD, offset: 0x12936, size: 0x8, addend: 0x0, symName: __ZNSt3__19allocatorI5FacetE7destroyB8ue170006EPS1_, symObjAddr: 0x15CC, symBinAddr: 0x100005834, symSize: 0x14 }
  - { offsetInCU: 0xA9FF, offset: 0x12968, size: 0x8, addend: 0x0, symName: __ZNKSt3__16vectorI5FacetNS_9allocatorIS1_EEE31__annotate_contiguous_containerB8ue170006EPKvS6_S6_S6_, symObjAddr: 0x15E0, symBinAddr: 0x100005848, symSize: 0x20 }
  - { offsetInCU: 0xAA53, offset: 0x129BC, size: 0x8, addend: 0x0, symName: __ZNKSt3__16vectorI5FacetNS_9allocatorIS1_EEE4dataB8ue170006Ev, symObjAddr: 0x1600, symBinAddr: 0x100005868, symSize: 0x28 }
  - { offsetInCU: 0xAA77, offset: 0x129E0, size: 0x8, addend: 0x0, symName: __ZNKSt3__16vectorI5FacetNS_9allocatorIS1_EEE4sizeB8ue170006Ev, symObjAddr: 0x1628, symBinAddr: 0x100005890, symSize: 0x28 }
  - { offsetInCU: 0xAA9B, offset: 0x12A04, size: 0x8, addend: 0x0, symName: __ZNSt3__19allocatorI5FacetE10deallocateB8ue170006EPS1_m, symObjAddr: 0x1650, symBinAddr: 0x1000058B8, symSize: 0x74 }
  - { offsetInCU: 0xAADB, offset: 0x12A44, size: 0x8, addend: 0x0, symName: __ZNSt3__117__compressed_pairIP5FacetNS_9allocatorIS1_EEE6secondB8ue170006Ev, symObjAddr: 0x174C, symBinAddr: 0x1000059A8, symSize: 0x24 }
  - { offsetInCU: 0xAAFF, offset: 0x12A68, size: 0x8, addend: 0x0, symName: __ZNSt3__122__compressed_pair_elemINS_9allocatorI5FacetEELi1ELb1EE5__getB8ue170006Ev, symObjAddr: 0x1770, symBinAddr: 0x1000059CC, symSize: 0x14 }
  - { offsetInCU: 0xAB23, offset: 0x12A8C, size: 0x8, addend: 0x0, symName: __ZNKSt3__16vectorI5FacetNS_9allocatorIS1_EEE9__end_capB8ue170006Ev, symObjAddr: 0x1784, symBinAddr: 0x1000059E0, symSize: 0x28 }
  - { offsetInCU: 0xAB47, offset: 0x12AB0, size: 0x8, addend: 0x0, symName: __ZNKSt3__117__compressed_pairIP5FacetNS_9allocatorIS1_EEE5firstB8ue170006Ev, symObjAddr: 0x17AC, symBinAddr: 0x100005A08, symSize: 0x24 }
  - { offsetInCU: 0xAB6B, offset: 0x12AD4, size: 0x8, addend: 0x0, symName: __ZNKSt3__122__compressed_pair_elemIP5FacetLi0ELb0EE5__getB8ue170006Ev, symObjAddr: 0x17D0, symBinAddr: 0x100005A2C, symSize: 0x14 }
  - { offsetInCU: 0xAB8F, offset: 0x12AF8, size: 0x8, addend: 0x0, symName: __ZNKSt3__112basic_stringIcNS_11char_traitsIcEENS_9allocatorIcEEE4sizeB8ue170006Ev, symObjAddr: 0x182C, symBinAddr: 0x100005A40, symSize: 0x54 }
  - { offsetInCU: 0xABB3, offset: 0x12B1C, size: 0x8, addend: 0x0, symName: __ZNKSt3__112basic_stringIcNS_11char_traitsIcEENS_9allocatorIcEEE15__get_long_sizeB8ue170006Ev, symObjAddr: 0x1918, symBinAddr: 0x100005A94, symSize: 0x28 }
  - { offsetInCU: 0xABD7, offset: 0x12B40, size: 0x8, addend: 0x0, symName: __ZNKSt3__112basic_stringIcNS_11char_traitsIcEENS_9allocatorIcEEE16__get_short_sizeB8ue170006Ev, symObjAddr: 0x1940, symBinAddr: 0x100005ABC, symSize: 0x34 }
  - { offsetInCU: 0xABFB, offset: 0x12B64, size: 0x8, addend: 0x0, symName: __ZNSt3__19basic_iosIcNS_11char_traitsIcEEEC2B8ue170006Ev, symObjAddr: 0x19AC, symBinAddr: 0x100005AF0, symSize: 0x44 }
  - { offsetInCU: 0xAC23, offset: 0x12B8C, size: 0x8, addend: 0x0, symName: __ZNSt3__113basic_istreamIcNS_11char_traitsIcEEEC2B8ue170006EPNS_15basic_streambufIcS2_EE, symObjAddr: 0x19F0, symBinAddr: 0x100005B34, symSize: 0x64 }
  - { offsetInCU: 0xAC65, offset: 0x12BCE, size: 0x8, addend: 0x0, symName: __ZNSt3__113basic_filebufIcNS_11char_traitsIcEEE4openERKNS_12basic_stringIcS2_NS_9allocatorIcEEEEj, symObjAddr: 0x1A54, symBinAddr: 0x100005B98, symSize: 0x44 }
  - { offsetInCU: 0xACA7, offset: 0x12C10, size: 0x8, addend: 0x0, symName: __ZNSt3__18ios_baseC2B8ue170006Ev, symObjAddr: 0x1AC4, symBinAddr: 0x100005BDC, symSize: 0x24 }
  - { offsetInCU: 0xACCF, offset: 0x12C38, size: 0x8, addend: 0x0, symName: __ZNSt3__19basic_iosIcNS_11char_traitsIcEEE4initB8ue170006EPNS_15basic_streambufIcS2_EE, symObjAddr: 0x1AE8, symBinAddr: 0x100005C00, symSize: 0x44 }
  - { offsetInCU: 0xAD04, offset: 0x12C6D, size: 0x8, addend: 0x0, symName: __ZNKSt3__112basic_stringIcNS_11char_traitsIcEENS_9allocatorIcEEE5c_strB8ue170006Ev, symObjAddr: 0x1B34, symBinAddr: 0x100005C44, symSize: 0x24 }
  - { offsetInCU: 0xAD28, offset: 0x12C91, size: 0x8, addend: 0x0, symName: __ZNKSt3__113basic_filebufIcNS_11char_traitsIcEEE7is_openEv, symObjAddr: 0x1C80, symBinAddr: 0x100005C68, symSize: 0x24 }
  - { offsetInCU: 0xAD4E, offset: 0x12CB7, size: 0x8, addend: 0x0, symName: __ZNSt3__112basic_stringIcNS_11char_traitsIcEENS_9allocatorIcEEEC2B8ue170006Ev, symObjAddr: 0x1CA4, symBinAddr: 0x100005C8C, symSize: 0x3C }
  - { offsetInCU: 0xAD76, offset: 0x12CDF, size: 0x8, addend: 0x0, symName: __ZNSt3__112basic_stringIcNS_11char_traitsIcEENS_9allocatorIcEEE14__default_initB8ue170006Ev, symObjAddr: 0x1D1C, symBinAddr: 0x100005CC8, symSize: 0xB0 }
  - { offsetInCU: 0xADC6, offset: 0x12D2F, size: 0x8, addend: 0x0, symName: __ZNSt3__117__compressed_pairINS_12basic_stringIcNS_11char_traitsIcEENS_9allocatorIcEEE5__repES5_E5firstB8ue170006Ev, symObjAddr: 0x1E88, symBinAddr: 0x100005D78, symSize: 0x24 }
  - { offsetInCU: 0xADEA, offset: 0x12D53, size: 0x8, addend: 0x0, symName: __ZNSt3__112basic_stringIcNS_11char_traitsIcEENS_9allocatorIcEEE11__recommendB8ue170006Em, symObjAddr: 0x1EAC, symBinAddr: 0x100005D9C, symSize: 0x9C }
  - { offsetInCU: 0xAE1C, offset: 0x12D85, size: 0x8, addend: 0x0, symName: __ZNSt3__116allocator_traitsINS_9allocatorIcEEE8allocateB8ue170006ERS2_m, symObjAddr: 0x1F48, symBinAddr: 0x100005E38, symSize: 0x2C }
  - { offsetInCU: 0xAE4E, offset: 0x12DB7, size: 0x8, addend: 0x0, symName: __ZNSt3__112basic_stringIcNS_11char_traitsIcEENS_9allocatorIcEEE7__allocB8ue170006Ev, symObjAddr: 0x1F74, symBinAddr: 0x100005E64, symSize: 0x24 }
  - { offsetInCU: 0xAE72, offset: 0x12DDB, size: 0x8, addend: 0x0, symName: __ZNSt3__112basic_stringIcNS_11char_traitsIcEENS_9allocatorIcEEE16__begin_lifetimeB8ue170006EPcm, symObjAddr: 0x1F98, symBinAddr: 0x100005E88, symSize: 0x14 }
  - { offsetInCU: 0xAEA4, offset: 0x12E0D, size: 0x8, addend: 0x0, symName: __ZNSt3__112basic_stringIcNS_11char_traitsIcEENS_9allocatorIcEEE18__set_long_pointerB8ue170006EPc, symObjAddr: 0x1FAC, symBinAddr: 0x100005E9C, symSize: 0x38 }
  - { offsetInCU: 0xAED7, offset: 0x12E40, size: 0x8, addend: 0x0, symName: __ZNSt3__112basic_stringIcNS_11char_traitsIcEENS_9allocatorIcEEE14__set_long_capB8ue170006Em, symObjAddr: 0x1FE4, symBinAddr: 0x100005ED4, symSize: 0x70 }
  - { offsetInCU: 0xAF0A, offset: 0x12E73, size: 0x8, addend: 0x0, symName: __ZNSt3__112basic_stringIcNS_11char_traitsIcEENS_9allocatorIcEEE15__set_long_sizeB8ue170006Em, symObjAddr: 0x2054, symBinAddr: 0x100005F44, symSize: 0x38 }
  - { offsetInCU: 0xAF3D, offset: 0x12EA6, size: 0x8, addend: 0x0, symName: __ZNSt3__122__compressed_pair_elemINS_12basic_stringIcNS_11char_traitsIcEENS_9allocatorIcEEE5__repELi0ELb0EE5__getB8ue170006Ev, symObjAddr: 0x208C, symBinAddr: 0x100005F7C, symSize: 0x14 }
  - { offsetInCU: 0xAF61, offset: 0x12ECA, size: 0x8, addend: 0x0, symName: __ZNSt3__112basic_stringIcNS_11char_traitsIcEENS_9allocatorIcEEE10__align_itB8ue170006ILm16EEEmm, symObjAddr: 0x20A0, symBinAddr: 0x100005F90, symSize: 0x1C }
  - { offsetInCU: 0xAF8E, offset: 0x12EF7, size: 0x8, addend: 0x0, symName: __ZNSt3__19allocatorIcE8allocateB8ue170006Em, symObjAddr: 0x20BC, symBinAddr: 0x100005FAC, symSize: 0x84 }
  - { offsetInCU: 0xAFCA, offset: 0x12F33, size: 0x8, addend: 0x0, symName: __ZNSt3__116allocator_traitsINS_9allocatorIcEEE8max_sizeB8ue170006IS2_vEEmRKS2_, symObjAddr: 0x2140, symBinAddr: 0x100006030, symSize: 0x24 }
  - { offsetInCU: 0xAFF8, offset: 0x12F61, size: 0x8, addend: 0x0, symName: __ZNKSt3__19allocatorIcE8max_sizeB8ue170006Ev, symObjAddr: 0x21C0, symBinAddr: 0x1000060B0, symSize: 0x14 }
  - { offsetInCU: 0xB01C, offset: 0x12F85, size: 0x8, addend: 0x0, symName: __ZNSt3__117__compressed_pairINS_12basic_stringIcNS_11char_traitsIcEENS_9allocatorIcEEE5__repES5_E6secondB8ue170006Ev, symObjAddr: 0x21F8, symBinAddr: 0x1000060E8, symSize: 0x24 }
  - { offsetInCU: 0xB040, offset: 0x12FA9, size: 0x8, addend: 0x0, symName: __ZNSt3__122__compressed_pair_elemINS_9allocatorIcEELi1ELb1EE5__getB8ue170006Ev, symObjAddr: 0x221C, symBinAddr: 0x10000610C, symSize: 0x14 }
  - { offsetInCU: 0xB082, offset: 0x12FEB, size: 0x8, addend: 0x0, symName: __ZNKSt3__113basic_istreamIcNS_11char_traitsIcEEE6sentrycvbB8ue170006Ev, symObjAddr: 0x24F4, symBinAddr: 0x100006358, symSize: 0x1C }
  - { offsetInCU: 0xB0A6, offset: 0x1300F, size: 0x8, addend: 0x0, symName: __ZNSt3__112basic_stringIcNS_11char_traitsIcEENS_9allocatorIcEEE5clearB8ue170006Ev, symObjAddr: 0x2510, symBinAddr: 0x100006374, symSize: 0x78 }
  - { offsetInCU: 0xB0CC, offset: 0x13035, size: 0x8, addend: 0x0, symName: __ZNSt3__115basic_streambufIcNS_11char_traitsIcEEE6sbumpcB8ue170006Ev, symObjAddr: 0x25AC, symBinAddr: 0x1000063EC, symSize: 0x78 }
  - { offsetInCU: 0xB0F0, offset: 0x13059, size: 0x8, addend: 0x0, symName: __ZNSt3__111char_traitsIcE12to_char_typeB8ue170006Ei, symObjAddr: 0x264C, symBinAddr: 0x100006464, symSize: 0x18 }
  - { offsetInCU: 0xB112, offset: 0x1307B, size: 0x8, addend: 0x0, symName: __ZNSt3__111char_traitsIcE2eqEcc, symObjAddr: 0x2664, symBinAddr: 0x10000647C, symSize: 0x28 }
  - { offsetInCU: 0xB142, offset: 0x130AB, size: 0x8, addend: 0x0, symName: __ZNKSt3__112basic_stringIcNS_11char_traitsIcEENS_9allocatorIcEEE8max_sizeB8ue170006Ev, symObjAddr: 0x268C, symBinAddr: 0x1000064A4, symSize: 0xAC }
  - { offsetInCU: 0xB192, offset: 0x130FB, size: 0x8, addend: 0x0, symName: __ZNSt3__18ios_base18__setstate_nothrowB8ue170006Ej, symObjAddr: 0x2738, symBinAddr: 0x100006550, symSize: 0x64 }
  - { offsetInCU: 0xB1C5, offset: 0x1312E, size: 0x8, addend: 0x0, symName: __ZNKSt3__19basic_iosIcNS_11char_traitsIcEEE10exceptionsB8ue170006Ev, symObjAddr: 0x279C, symBinAddr: 0x1000065B4, symSize: 0x24 }
  - { offsetInCU: 0xB1E9, offset: 0x13152, size: 0x8, addend: 0x0, symName: __ZNSt3__111char_traitsIcE6assignB8ue170006ERcRKc, symObjAddr: 0x27C0, symBinAddr: 0x1000065D8, symSize: 0x24 }
  - { offsetInCU: 0xB219, offset: 0x13182, size: 0x8, addend: 0x0, symName: __ZNSt3__112basic_stringIcNS_11char_traitsIcEENS_9allocatorIcEEE18__get_long_pointerB8ue170006Ev, symObjAddr: 0x27E4, symBinAddr: 0x1000065FC, symSize: 0x28 }
  - { offsetInCU: 0xB23D, offset: 0x131A6, size: 0x8, addend: 0x0, symName: __ZNSt3__112basic_stringIcNS_11char_traitsIcEENS_9allocatorIcEEE19__get_short_pointerB8ue170006Ev, symObjAddr: 0x280C, symBinAddr: 0x100006624, symSize: 0x28 }
  - { offsetInCU: 0xB261, offset: 0x131CA, size: 0x8, addend: 0x0, symName: __ZNSt3__112basic_stringIcNS_11char_traitsIcEENS_9allocatorIcEEE16__set_short_sizeB8ue170006Em, symObjAddr: 0x2834, symBinAddr: 0x10000664C, symSize: 0x78 }
  - { offsetInCU: 0xB294, offset: 0x131FD, size: 0x8, addend: 0x0, symName: __ZNSt3__114pointer_traitsIPcE10pointer_toB8ue170006ERc, symObjAddr: 0x28AC, symBinAddr: 0x1000066C4, symSize: 0x14 }
  - { offsetInCU: 0xB2B6, offset: 0x1321F, size: 0x8, addend: 0x0, symName: __ZNSt3__111char_traitsIcE11to_int_typeB8ue170006Ec, symObjAddr: 0x28D8, symBinAddr: 0x1000066D8, symSize: 0x14 }
  - { offsetInCU: 0xB2D9, offset: 0x13242, size: 0x8, addend: 0x0, symName: __ZNKSt3__112basic_stringIcNS_11char_traitsIcEENS_9allocatorIcEEE7__allocB8ue170006Ev, symObjAddr: 0x28EC, symBinAddr: 0x1000066EC, symSize: 0x24 }
  - { offsetInCU: 0xB2FD, offset: 0x13266, size: 0x8, addend: 0x0, symName: __ZNSt3__114numeric_limitsImE3maxB8ue170006Ev, symObjAddr: 0x2910, symBinAddr: 0x100006710, symSize: 0x14 }
  - { offsetInCU: 0xB311, offset: 0x1327A, size: 0x8, addend: 0x0, symName: __ZNKSt3__117__compressed_pairINS_12basic_stringIcNS_11char_traitsIcEENS_9allocatorIcEEE5__repES5_E6secondB8ue170006Ev, symObjAddr: 0x2924, symBinAddr: 0x100006724, symSize: 0x24 }
  - { offsetInCU: 0xB335, offset: 0x1329E, size: 0x8, addend: 0x0, symName: __ZNKSt3__122__compressed_pair_elemINS_9allocatorIcEELi1ELb1EE5__getB8ue170006Ev, symObjAddr: 0x2948, symBinAddr: 0x100006748, symSize: 0x14 }
  - { offsetInCU: 0xB359, offset: 0x132C2, size: 0x8, addend: 0x0, symName: __ZNSt3__123__libcpp_numeric_limitsImLb1EE3maxB8ue170006Ev, symObjAddr: 0x295C, symBinAddr: 0x10000675C, symSize: 0x8 }
  - { offsetInCU: 0xB36C, offset: 0x132D5, size: 0x8, addend: 0x0, symName: __ZNKSt3__18ios_base10exceptionsB8ue170006Ev, symObjAddr: 0x2964, symBinAddr: 0x100006764, symSize: 0x18 }
  - { offsetInCU: 0xB392, offset: 0x132FB, size: 0x8, addend: 0x0, symName: __ZNKSt3__19basic_iosIcNS_11char_traitsIcEEE4failB8ue170006Ev, symObjAddr: 0x29E0, symBinAddr: 0x10000677C, symSize: 0x28 }
  - { offsetInCU: 0xB3B6, offset: 0x1331F, size: 0x8, addend: 0x0, symName: __ZNKSt3__18ios_base4failB8ue170006Ev, symObjAddr: 0x2A08, symBinAddr: 0x1000067A4, symSize: 0x28 }
  - { offsetInCU: 0xB3DC, offset: 0x13345, size: 0x8, addend: 0x0, symName: __ZNSt3__111char_traitsIcE4findB8ue170006EPKcmRS2_, symObjAddr: 0x2C68, symBinAddr: 0x100006A04, symSize: 0x84 }
  - { offsetInCU: 0xB41A, offset: 0x13383, size: 0x8, addend: 0x0, symName: __ZNSt3__111char_traitsIcE7compareB8ue170006EPKcS3_m, symObjAddr: 0x2CEC, symBinAddr: 0x100006A88, symSize: 0x64 }
  - { offsetInCU: 0xB458, offset: 0x133C1, size: 0x8, addend: 0x0, symName: __ZNSt3__19allocatorIcEC1B8ue170006Ev, symObjAddr: 0x2E10, symBinAddr: 0x100006BAC, symSize: 0x2C }
  - { offsetInCU: 0xB480, offset: 0x133E9, size: 0x8, addend: 0x0, symName: __ZNSt3__115basic_stringbufIcNS_11char_traitsIcEENS_9allocatorIcEEEC1B8ue170006ERKNS_12basic_stringIcS2_S4_EEj, symObjAddr: 0x2E3C, symBinAddr: 0x100006BD8, symSize: 0x3C }
  - { offsetInCU: 0xB4C6, offset: 0x1342F, size: 0x8, addend: 0x0, symName: __ZNSt3__115basic_stringbufIcNS_11char_traitsIcEENS_9allocatorIcEEEC2B8ue170006ERKNS_12basic_stringIcS2_S4_EEj, symObjAddr: 0x2E78, symBinAddr: 0x100006C14, symSize: 0xD8 }
  - { offsetInCU: 0xB50C, offset: 0x13475, size: 0x8, addend: 0x0, symName: __ZNKSt3__112basic_stringIcNS_11char_traitsIcEENS_9allocatorIcEEE13get_allocatorB8ue170006Ev, symObjAddr: 0x2F50, symBinAddr: 0x100006CEC, symSize: 0x24 }
  - { offsetInCU: 0xB530, offset: 0x13499, size: 0x8, addend: 0x0, symName: __ZNSt3__112basic_stringIcNS_11char_traitsIcEENS_9allocatorIcEEEC1B8ue170006ERKS4_, symObjAddr: 0x2F74, symBinAddr: 0x100006D10, symSize: 0x34 }
  - { offsetInCU: 0xB567, offset: 0x134D0, size: 0x8, addend: 0x0, symName: __ZNSt3__112basic_stringIcNS_11char_traitsIcEENS_9allocatorIcEEEC2B8ue170006ERKS4_, symObjAddr: 0x2FA8, symBinAddr: 0x100006D44, symSize: 0x40 }
  - { offsetInCU: 0xB59E, offset: 0x13507, size: 0x8, addend: 0x0, symName: __ZNSt3__117__compressed_pairINS_12basic_stringIcNS_11char_traitsIcEENS_9allocatorIcEEE5__repES5_EC1B8ue170006INS_18__default_init_tagERKS5_EEOT_OT0_, symObjAddr: 0x2FE8, symBinAddr: 0x100006D84, symSize: 0x3C }
  - { offsetInCU: 0xB5F4, offset: 0x1355D, size: 0x8, addend: 0x0, symName: __ZNSt3__117__compressed_pairINS_12basic_stringIcNS_11char_traitsIcEENS_9allocatorIcEEE5__repES5_EC2B8ue170006INS_18__default_init_tagERKS5_EEOT_OT0_, symObjAddr: 0x3024, symBinAddr: 0x100006DC0, symSize: 0x40 }
  - { offsetInCU: 0xB64A, offset: 0x135B3, size: 0x8, addend: 0x0, symName: __ZNSt3__122__compressed_pair_elemINS_9allocatorIcEELi1ELb1EEC2B8ue170006IRKS2_vEEOT_, symObjAddr: 0x3064, symBinAddr: 0x100006E00, symSize: 0x18 }
  - { offsetInCU: 0xB68B, offset: 0x135F4, size: 0x8, addend: 0x0, symName: __ZNSt3__16vectorI5FacetNS_9allocatorIS1_EEE9__end_capB8ue170006Ev, symObjAddr: 0x307C, symBinAddr: 0x100006E18, symSize: 0x28 }
  - { offsetInCU: 0xB6AF, offset: 0x13618, size: 0x8, addend: 0x0, symName: __ZNSt3__16vectorI5FacetNS_9allocatorIS1_EEE22__construct_one_at_endB8ue170006IJRKS1_EEEvDpOT_, symObjAddr: 0x30A4, symBinAddr: 0x100006E40, symSize: 0x98 }
  - { offsetInCU: 0xB6FD, offset: 0x13666, size: 0x8, addend: 0x0, symName: __ZNSt3__16vectorI5FacetNS_9allocatorIS1_EEE21__push_back_slow_pathIRKS1_EEvOT_, symObjAddr: 0x313C, symBinAddr: 0x100006ED8, symSize: 0xE0 }
  - { offsetInCU: 0xB759, offset: 0x136C2, size: 0x8, addend: 0x0, symName: __ZNSt3__117__compressed_pairIP5FacetNS_9allocatorIS1_EEE5firstB8ue170006Ev, symObjAddr: 0x321C, symBinAddr: 0x100006FB8, symSize: 0x24 }
  - { offsetInCU: 0xB77D, offset: 0x136E6, size: 0x8, addend: 0x0, symName: __ZNSt3__122__compressed_pair_elemIP5FacetLi0ELb0EE5__getB8ue170006Ev, symObjAddr: 0x3240, symBinAddr: 0x100006FDC, symSize: 0x14 }
  - { offsetInCU: 0xB7BA, offset: 0x13723, size: 0x8, addend: 0x0, symName: __ZNSt3__16vectorI5FacetNS_9allocatorIS1_EEE21_ConstructTransactionC1B8ue170006ERS4_m, symObjAddr: 0x3254, symBinAddr: 0x100006FF0, symSize: 0x3C }
  - { offsetInCU: 0xB800, offset: 0x13769, size: 0x8, addend: 0x0, symName: __ZNSt3__116allocator_traitsINS_9allocatorI5FacetEEE9constructB8ue170006IS2_JRKS2_EvEEvRS3_PT_DpOT0_, symObjAddr: 0x3290, symBinAddr: 0x10000702C, symSize: 0x34 }
  - { offsetInCU: 0xB858, offset: 0x137C1, size: 0x8, addend: 0x0, symName: __ZNSt3__16vectorI5FacetNS_9allocatorIS1_EEE21_ConstructTransactionD1B8ue170006Ev, symObjAddr: 0x32C4, symBinAddr: 0x100007060, symSize: 0x2C }
  - { offsetInCU: 0xB880, offset: 0x137E9, size: 0x8, addend: 0x0, symName: __ZNSt3__16vectorI5FacetNS_9allocatorIS1_EEE21_ConstructTransactionC2B8ue170006ERS4_m, symObjAddr: 0x32F0, symBinAddr: 0x10000708C, symSize: 0x4C }
  - { offsetInCU: 0xB8C6, offset: 0x1382F, size: 0x8, addend: 0x0, symName: __ZNSt3__19allocatorI5FacetE9constructB8ue170006IS1_JRKS1_EEEvPT_DpOT0_, symObjAddr: 0x333C, symBinAddr: 0x1000070D8, symSize: 0x34 }
  - { offsetInCU: 0xB91B, offset: 0x13884, size: 0x8, addend: 0x0, symName: __ZNSt3__16vectorI5FacetNS_9allocatorIS1_EEE21_ConstructTransactionD2B8ue170006Ev, symObjAddr: 0x3370, symBinAddr: 0x10000710C, symSize: 0x20 }
  - { offsetInCU: 0xB943, offset: 0x138AC, size: 0x8, addend: 0x0, symName: __ZNKSt3__16vectorI5FacetNS_9allocatorIS1_EEE11__recommendB8ue170006Em, symObjAddr: 0x3390, symBinAddr: 0x10000712C, symSize: 0xB4 }
  - { offsetInCU: 0xB996, offset: 0x138FF, size: 0x8, addend: 0x0, symName: __ZNSt3__114__split_bufferI5FacetRNS_9allocatorIS1_EEEC1EmmS4_, symObjAddr: 0x3444, symBinAddr: 0x1000071E0, symSize: 0x44 }
  - { offsetInCU: 0xB9EB, offset: 0x13954, size: 0x8, addend: 0x0, symName: __ZNSt3__114__split_bufferI5FacetRNS_9allocatorIS1_EEED1Ev, symObjAddr: 0x3598, symBinAddr: 0x100007334, symSize: 0x2C }
  - { offsetInCU: 0xBA16, offset: 0x1397F, size: 0x8, addend: 0x0, symName: __ZNKSt3__16vectorI5FacetNS_9allocatorIS1_EEE8max_sizeEv, symObjAddr: 0x35C4, symBinAddr: 0x100007360, symSize: 0x74 }
  - { offsetInCU: 0xBA3C, offset: 0x139A5, size: 0x8, addend: 0x0, symName: __ZNKSt3__16vectorI5FacetNS_9allocatorIS1_EEE20__throw_length_errorB8ue170006Ev, symObjAddr: 0x3638, symBinAddr: 0x1000073D4, symSize: 0x1C }
  - { offsetInCU: 0xBA6A, offset: 0x139D3, size: 0x8, addend: 0x0, symName: __ZNSt3__116allocator_traitsINS_9allocatorI5FacetEEE8max_sizeB8ue170006IS3_vEEmRKS3_, symObjAddr: 0x36AC, symBinAddr: 0x100007448, symSize: 0x24 }
  - { offsetInCU: 0xBA98, offset: 0x13A01, size: 0x8, addend: 0x0, symName: __ZNKSt3__16vectorI5FacetNS_9allocatorIS1_EEE7__allocB8ue170006Ev, symObjAddr: 0x36D0, symBinAddr: 0x10000746C, symSize: 0x28 }
  - { offsetInCU: 0xBABC, offset: 0x13A25, size: 0x8, addend: 0x0, symName: __ZNSt3__114numeric_limitsIlE3maxB8ue170006Ev, symObjAddr: 0x36F8, symBinAddr: 0x100007494, symSize: 0x14 }
  - { offsetInCU: 0xBAE4, offset: 0x13A4D, size: 0x8, addend: 0x0, symName: __ZNKSt3__16__lessIvvEclB8ue170006ImmEEbRKT_RKT0_, symObjAddr: 0x3760, symBinAddr: 0x1000074FC, symSize: 0x34 }
  - { offsetInCU: 0xBB36, offset: 0x13A9F, size: 0x8, addend: 0x0, symName: __ZNKSt3__19allocatorI5FacetE8max_sizeB8ue170006Ev, symObjAddr: 0x3794, symBinAddr: 0x100007530, symSize: 0x20 }
  - { offsetInCU: 0xBB5A, offset: 0x13AC3, size: 0x8, addend: 0x0, symName: __ZNKSt3__117__compressed_pairIP5FacetNS_9allocatorIS1_EEE6secondB8ue170006Ev, symObjAddr: 0x37B4, symBinAddr: 0x100007550, symSize: 0x24 }
  - { offsetInCU: 0xBB7E, offset: 0x13AE7, size: 0x8, addend: 0x0, symName: __ZNKSt3__122__compressed_pair_elemINS_9allocatorI5FacetEELi1ELb1EE5__getB8ue170006Ev, symObjAddr: 0x37D8, symBinAddr: 0x100007574, symSize: 0x14 }
  - { offsetInCU: 0xBBA2, offset: 0x13B0B, size: 0x8, addend: 0x0, symName: __ZNSt3__123__libcpp_numeric_limitsIlLb1EE3maxB8ue170006Ev, symObjAddr: 0x37EC, symBinAddr: 0x100007588, symSize: 0x8 }
  - { offsetInCU: 0xBBB5, offset: 0x13B1E, size: 0x8, addend: 0x0, symName: __ZNSt12length_errorC1B8ue170006EPKc, symObjAddr: 0x3858, symBinAddr: 0x1000075F4, symSize: 0x34 }
  - { offsetInCU: 0xBBEB, offset: 0x13B54, size: 0x8, addend: 0x0, symName: __ZNSt12length_errorC2B8ue170006EPKc, symObjAddr: 0x388C, symBinAddr: 0x100007628, symSize: 0x4C }
  - { offsetInCU: 0xBC21, offset: 0x13B8A, size: 0x8, addend: 0x0, symName: __ZNSt3__114__split_bufferI5FacetRNS_9allocatorIS1_EEEC2EmmS4_, symObjAddr: 0x392C, symBinAddr: 0x1000076C8, symSize: 0xE0 }
  - { offsetInCU: 0xBC93, offset: 0x13BFC, size: 0x8, addend: 0x0, symName: __ZNSt3__117__compressed_pairIP5FacetRNS_9allocatorIS1_EEEC1B8ue170006IDnS5_EEOT_OT0_, symObjAddr: 0x3A0C, symBinAddr: 0x1000077A8, symSize: 0x3C }
  - { offsetInCU: 0xBCE9, offset: 0x13C52, size: 0x8, addend: 0x0, symName: __ZNSt3__114__split_bufferI5FacetRNS_9allocatorIS1_EEE7__allocB8ue170006Ev, symObjAddr: 0x3A88, symBinAddr: 0x100007824, symSize: 0x28 }
  - { offsetInCU: 0xBD0D, offset: 0x13C76, size: 0x8, addend: 0x0, symName: __ZNSt3__114__split_bufferI5FacetRNS_9allocatorIS1_EEE9__end_capB8ue170006Ev, symObjAddr: 0x3AB0, symBinAddr: 0x10000784C, symSize: 0x28 }
  - { offsetInCU: 0xBD31, offset: 0x13C9A, size: 0x8, addend: 0x0, symName: __ZNSt3__117__compressed_pairIP5FacetRNS_9allocatorIS1_EEEC2B8ue170006IDnS5_EEOT_OT0_, symObjAddr: 0x3AD8, symBinAddr: 0x100007874, symSize: 0x48 }
  - { offsetInCU: 0xBD87, offset: 0x13CF0, size: 0x8, addend: 0x0, symName: __ZNSt3__122__compressed_pair_elemIRNS_9allocatorI5FacetEELi1ELb0EEC2B8ue170006IS4_vEEOT_, symObjAddr: 0x3B20, symBinAddr: 0x1000078BC, symSize: 0x20 }
  - { offsetInCU: 0xBDC8, offset: 0x13D31, size: 0x8, addend: 0x0, symName: __ZNSt3__19allocatorI5FacetE8allocateB8ue170006Em, symObjAddr: 0x3B40, symBinAddr: 0x1000078DC, symSize: 0x8C }
  - { offsetInCU: 0xBDFA, offset: 0x13D63, size: 0x8, addend: 0x0, symName: __ZNSt3__117__compressed_pairIP5FacetRNS_9allocatorIS1_EEE6secondB8ue170006Ev, symObjAddr: 0x3BCC, symBinAddr: 0x100007968, symSize: 0x28 }
  - { offsetInCU: 0xBE1E, offset: 0x13D87, size: 0x8, addend: 0x0, symName: __ZNSt3__122__compressed_pair_elemIRNS_9allocatorI5FacetEELi1ELb0EE5__getB8ue170006Ev, symObjAddr: 0x3BF4, symBinAddr: 0x100007990, symSize: 0x18 }
  - { offsetInCU: 0xBE42, offset: 0x13DAB, size: 0x8, addend: 0x0, symName: __ZNSt3__117__compressed_pairIP5FacetRNS_9allocatorIS1_EEE5firstB8ue170006Ev, symObjAddr: 0x3C0C, symBinAddr: 0x1000079A8, symSize: 0x24 }
  - { offsetInCU: 0xBE66, offset: 0x13DCF, size: 0x8, addend: 0x0, symName: __ZNSt3__116reverse_iteratorIP5FacetEC1B8ue170006ES2_, symObjAddr: 0x3D18, symBinAddr: 0x100007AB4, symSize: 0x34 }
  - { offsetInCU: 0xBE9C, offset: 0x13E05, size: 0x8, addend: 0x0, symName: __ZNKSt3__116reverse_iteratorIP5FacetE4baseB8ue170006Ev, symObjAddr: 0x3D4C, symBinAddr: 0x100007AE8, symSize: 0x18 }
  - { offsetInCU: 0xBEC0, offset: 0x13E29, size: 0x8, addend: 0x0, symName: __ZNKSt3__16vectorI5FacetNS_9allocatorIS1_EEE14__annotate_newB8ue170006Em, symObjAddr: 0x3DA0, symBinAddr: 0x100007B3C, symSize: 0xC8 }
  - { offsetInCU: 0xBEF3, offset: 0x13E5C, size: 0x8, addend: 0x0, symName: __ZNKSt3__116reverse_iteratorIP5FacetEdeB8ue170006Ev, symObjAddr: 0x3F14, symBinAddr: 0x100007CB0, symSize: 0x28 }
  - { offsetInCU: 0xBF25, offset: 0x13E8E, size: 0x8, addend: 0x0, symName: __ZNSt3__116reverse_iteratorIP5FacetEppB8ue170006Ev, symObjAddr: 0x3F3C, symBinAddr: 0x100007CD8, symSize: 0x20 }
  - { offsetInCU: 0xBF4E, offset: 0x13EB7, size: 0x8, addend: 0x0, symName: __ZNSt3__119__to_address_helperINS_16reverse_iteratorIP5FacetEEvE6__callB8ue170006ERKS4_, symObjAddr: 0x3FD4, symBinAddr: 0x100007D70, symSize: 0x4C }
  - { offsetInCU: 0xBF70, offset: 0x13ED9, size: 0x8, addend: 0x0, symName: __ZNKSt3__116reverse_iteratorIP5FacetEptB8ue170006Ev, symObjAddr: 0x4020, symBinAddr: 0x100007DBC, symSize: 0x24 }
  - { offsetInCU: 0xBFB7, offset: 0x13F20, size: 0x8, addend: 0x0, symName: __ZNKSt3__111__move_loopINS_17_ClassicAlgPolicyEEclB8ue170006INS_16reverse_iteratorIP5FacetEES7_S7_EENS_4pairIT_T1_EES9_T0_SA_, symObjAddr: 0x42BC, symBinAddr: 0x100008058, symSize: 0x9C }
  - { offsetInCU: 0xC025, offset: 0x13F8E, size: 0x8, addend: 0x0, symName: __ZNSt3__18_IterOpsINS_17_ClassicAlgPolicyEE11__iter_moveB8ue170006IRNS_16reverse_iteratorIP5FacetEEEENS_9enable_ifIXsr12is_referenceIDTdeclsr3stdE7declvalIRT_EEEEE5valueEDTclsr3stdE4movedeclsr3stdE7declvalISB_EEEEE4typeEOSA_, symObjAddr: 0x44B8, symBinAddr: 0x100008254, symSize: 0x28 }
  - { offsetInCU: 0xC050, offset: 0x13FB9, size: 0x8, addend: 0x0, symName: __ZNSt3__18_IterOpsINS_17_ClassicAlgPolicyEE25__validate_iter_referenceB8ue170006IRNS_16reverse_iteratorIP5FacetEEEEvv, symObjAddr: 0x44E0, symBinAddr: 0x10000827C, symSize: 0x4 }
  - { offsetInCU: 0xC06D, offset: 0x13FD6, size: 0x8, addend: 0x0, symName: __ZNSt3__118__unwrap_iter_implINS_16reverse_iteratorIP5FacetEELb0EE8__unwrapB8ue170006ES4_, symObjAddr: 0x44E4, symBinAddr: 0x100008280, symSize: 0x24 }
  - { offsetInCU: 0xC08F, offset: 0x13FF8, size: 0x8, addend: 0x0, symName: __ZNSt3__14pairINS_16reverse_iteratorIP5FacetEES4_EC1B8ue170006ERKS4_S7_, symObjAddr: 0x4508, symBinAddr: 0x1000082A4, symSize: 0x3C }
  - { offsetInCU: 0xC0D3, offset: 0x1403C, size: 0x8, addend: 0x0, symName: __ZNSt3__14pairINS_16reverse_iteratorIP5FacetEES4_EC2B8ue170006ERKS4_S7_, symObjAddr: 0x4544, symBinAddr: 0x1000082E0, symSize: 0x34 }
  - { offsetInCU: 0xC117, offset: 0x14080, size: 0x8, addend: 0x0, symName: __ZNSt3__118__unwrap_iter_implINS_16reverse_iteratorIP5FacetEELb0EE8__rewrapB8ue170006ES4_S4_, symObjAddr: 0x4578, symBinAddr: 0x100008314, symSize: 0x2C }
  - { offsetInCU: 0xC143, offset: 0x140AC, size: 0x8, addend: 0x0, symName: __ZNSt3__116reverse_iteratorIP5FacetEC2B8ue170006ES2_, symObjAddr: 0x45A4, symBinAddr: 0x100008340, symSize: 0x28 }
  - { offsetInCU: 0xC179, offset: 0x140E2, size: 0x8, addend: 0x0, symName: __ZNSt3__114__split_bufferI5FacetRNS_9allocatorIS1_EEED2Ev, symObjAddr: 0x45CC, symBinAddr: 0x100008368, symSize: 0x80 }
  - { offsetInCU: 0xC1A4, offset: 0x1410D, size: 0x8, addend: 0x0, symName: __ZNSt3__114__split_bufferI5FacetRNS_9allocatorIS1_EEE5clearB8ue170006Ev, symObjAddr: 0x464C, symBinAddr: 0x1000083E8, symSize: 0x28 }
  - { offsetInCU: 0xC1C8, offset: 0x14131, size: 0x8, addend: 0x0, symName: __ZNKSt3__114__split_bufferI5FacetRNS_9allocatorIS1_EEE8capacityB8ue170006Ev, symObjAddr: 0x4674, symBinAddr: 0x100008410, symSize: 0x40 }
  - { offsetInCU: 0xC1EC, offset: 0x14155, size: 0x8, addend: 0x0, symName: __ZNSt3__114__split_bufferI5FacetRNS_9allocatorIS1_EEE17__destruct_at_endB8ue170006EPS1_, symObjAddr: 0x46B4, symBinAddr: 0x100008450, symSize: 0x2C }
  - { offsetInCU: 0xC21E, offset: 0x14187, size: 0x8, addend: 0x0, symName: __ZNSt3__114__split_bufferI5FacetRNS_9allocatorIS1_EEE17__destruct_at_endB8ue170006EPS1_NS_17integral_constantIbLb0EEE, symObjAddr: 0x46E0, symBinAddr: 0x10000847C, symSize: 0x94 }
  - { offsetInCU: 0xC25C, offset: 0x141C5, size: 0x8, addend: 0x0, symName: __ZNKSt3__114__split_bufferI5FacetRNS_9allocatorIS1_EEE9__end_capB8ue170006Ev, symObjAddr: 0x4774, symBinAddr: 0x100008510, symSize: 0x28 }
  - { offsetInCU: 0xC280, offset: 0x141E9, size: 0x8, addend: 0x0, symName: __ZNKSt3__117__compressed_pairIP5FacetRNS_9allocatorIS1_EEE5firstB8ue170006Ev, symObjAddr: 0x479C, symBinAddr: 0x100008538, symSize: 0x24 }
  - { offsetInCU: 0x5C1F, offset: 0x19EEE, size: 0x8, addend: 0x0, symName: __ZNK7Section17PlaneInterSectionERK5Plane, symObjAddr: 0x0, symBinAddr: 0x10000855C, symSize: 0x160 }
  - { offsetInCU: 0x5C6F, offset: 0x19F3E, size: 0x8, addend: 0x0, symName: __ZNK5Plane6getRefEv, symObjAddr: 0x160, symBinAddr: 0x1000086BC, symSize: 0x14 }
  - { offsetInCU: 0x5C93, offset: 0x19F62, size: 0x8, addend: 0x0, symName: __ZNK5Plane9getNormalEv, symObjAddr: 0x174, symBinAddr: 0x1000086D0, symSize: 0x18 }
  - { offsetInCU: 0x5CB7, offset: 0x19F86, size: 0x8, addend: 0x0, symName: __Z5isnanB8ue170006Ua9enable_ifIXLb1EEEd, symObjAddr: 0x18C, symBinAddr: 0x1000086E8, symSize: 0x20 }
  - { offsetInCU: 0x5CE6, offset: 0x19FB5, size: 0x8, addend: 0x0, symName: __Z5isinfB8ue170006Ua9enable_ifIXLb1EEEd, symObjAddr: 0x1AC, symBinAddr: 0x100008708, symSize: 0x2C }
  - { offsetInCU: 0x5D15, offset: 0x19FE4, size: 0x8, addend: 0x0, symName: __ZN7SectionC2E6VectorS0_, symObjAddr: 0x21C, symBinAddr: 0x100008734, symSize: 0xB8 }
  - { offsetInCU: 0x5D5C, offset: 0x1A02B, size: 0x8, addend: 0x0, symName: __ZN7SectionC1E6VectorS0_, symObjAddr: 0x2D4, symBinAddr: 0x1000087EC, symSize: 0x5C }
  - { offsetInCU: 0x5DA3, offset: 0x1A072, size: 0x8, addend: 0x0, symName: __ZNK7Section5printERNSt3__113basic_ostreamIcNS0_11char_traitsIcEEEE, symObjAddr: 0x330, symBinAddr: 0x100008848, symSize: 0x68 }
  - { offsetInCU: 0x5DD3, offset: 0x1A0A2, size: 0x8, addend: 0x0, symName: __ZNK7SectioneqERKS_, symObjAddr: 0x434, symBinAddr: 0x1000088B0, symSize: 0x64 }
  - { offsetInCU: 0x6157, offset: 0x2025A, size: 0x8, addend: 0x0, symName: __ZNK6Vector9getLengthEv, symObjAddr: 0x0, symBinAddr: 0x100008914, symSize: 0x3C }
  - { offsetInCU: 0x617E, offset: 0x20281, size: 0x8, addend: 0x0, symName: __ZN6Vector3dotERKS_S1_, symObjAddr: 0x3C, symBinAddr: 0x100008950, symSize: 0x50 }
  - { offsetInCU: 0x61B1, offset: 0x202B4, size: 0x8, addend: 0x0, symName: __ZN6Vector5crossERKS_S1_, symObjAddr: 0x8C, symBinAddr: 0x1000089A0, symSize: 0xAC }
  - { offsetInCU: 0x61E4, offset: 0x202E7, size: 0x8, addend: 0x0, symName: __ZNK6Vector5printERNSt3__113basic_ostreamIcNS0_11char_traitsIcEEEE, symObjAddr: 0x17C, symBinAddr: 0x100008A4C, symSize: 0x2C }
  - { offsetInCU: 0x6218, offset: 0x2031B, size: 0x8, addend: 0x0, symName: __ZlsRNSt3__113basic_ostreamIcNS_11char_traitsIcEEEERK6Vector, symObjAddr: 0x1A8, symBinAddr: 0x100008A78, symSize: 0x7C }
  - { offsetInCU: 0x6252, offset: 0x20355, size: 0x8, addend: 0x0, symName: __ZrsRNSt3__113basic_istreamIcNS_11char_traitsIcEEEER6Vector, symObjAddr: 0x26C, symBinAddr: 0x100008AF4, symSize: 0x48 }
  - { offsetInCU: 0x628C, offset: 0x2038F, size: 0x8, addend: 0x0, symName: __ZNK6VectormiERKS_, symObjAddr: 0x2B4, symBinAddr: 0x100008B3C, symSize: 0x68 }
  - { offsetInCU: 0x62C0, offset: 0x203C3, size: 0x8, addend: 0x0, symName: __ZNK6VectorplERKS_, symObjAddr: 0x31C, symBinAddr: 0x100008BA4, symSize: 0x68 }
  - { offsetInCU: 0x62F4, offset: 0x203F7, size: 0x8, addend: 0x0, symName: __ZNK6VectorltERd, symObjAddr: 0x384, symBinAddr: 0x100008C0C, symSize: 0x30 }
  - { offsetInCU: 0x6329, offset: 0x2042C, size: 0x8, addend: 0x0, symName: __ZNK6VectorgtERd, symObjAddr: 0x3B4, symBinAddr: 0x100008C3C, symSize: 0x30 }
  - { offsetInCU: 0x635E, offset: 0x20461, size: 0x8, addend: 0x0, symName: __ZrsRdRK6Vector, symObjAddr: 0x3E4, symBinAddr: 0x100008C6C, symSize: 0x24 }
  - { offsetInCU: 0x6395, offset: 0x20498, size: 0x8, addend: 0x0, symName: __ZN6VectormlEd, symObjAddr: 0x408, symBinAddr: 0x100008C90, symSize: 0x48 }
  - { offsetInCU: 0x63CA, offset: 0x204CD, size: 0x8, addend: 0x0, symName: __ZNK6VectoreqERKS_, symObjAddr: 0x450, symBinAddr: 0x100008CD8, symSize: 0xCC }
  - { offsetInCU: 0x63FE, offset: 0x20501, size: 0x8, addend: 0x0, symName: __Z3absB8ue170006d, symObjAddr: 0x51C, symBinAddr: 0x100008DA4, symSize: 0x18 }
  - { offsetInCU: 0x5D65, offset: 0x2632E, size: 0x8, addend: 0x0, symName: __ZNSt3__14endlB8ue170006IcNS_11char_traitsIcEEEERNS_13basic_ostreamIT_T0_EES7_, symObjAddr: 0x58C, symBinAddr: 0x100009284, symSize: 0x58 }
  - { offsetInCU: 0x5DA5, offset: 0x2636E, size: 0x8, addend: 0x0, symName: __ZNSt3__1lsB8ue170006INS_11char_traitsIcEEEERNS_13basic_ostreamIcT_EES6_c, symObjAddr: 0x6FC, symBinAddr: 0x1000093A0, symSize: 0x34 }
  - { offsetInCU: 0x5DEB, offset: 0x263B4, size: 0x8, addend: 0x0, symName: __ZNSt3__112__to_addressB8ue170006I7SectionEEPT_S3_, symObjAddr: 0x13C4, symBinAddr: 0x100009944, symSize: 0x14 }
  - { offsetInCU: 0x5E20, offset: 0x263E9, size: 0x8, addend: 0x0, symName: __ZNSt3__119__allocate_at_leastB8ue170006INS_9allocatorI7SectionEEEENS_19__allocation_resultINS_16allocator_traitsIT_E7pointerEEERS6_m, symObjAddr: 0x2924, symBinAddr: 0x10000A278, symSize: 0x40 }
  - { offsetInCU: 0x5E63, offset: 0x2642C, size: 0x8, addend: 0x0, symName: __ZNSt3__142__uninitialized_allocator_move_if_noexceptB8ue170006INS_9allocatorI7SectionEENS_16reverse_iteratorIPS2_EES6_S2_vEET1_RT_T0_SA_S7_, symObjAddr: 0x2B8C, symBinAddr: 0x10000A460, symSize: 0xE8 }
  - { offsetInCU: 0x5EE2, offset: 0x264AB, size: 0x8, addend: 0x0, symName: __ZNSt3__14swapB8ue170006IP7SectionEEvRT_S4_, symObjAddr: 0x2CC0, symBinAddr: 0x10000A594, symSize: 0x3C }
  - { offsetInCU: 0x5F33, offset: 0x264FC, size: 0x8, addend: 0x0, symName: __ZNSt3__1neB8ue170006IP7SectionS2_EEbRKNS_16reverse_iteratorIT_EERKNS3_IT0_EE, symObjAddr: 0x2DC4, symBinAddr: 0x10000A698, symSize: 0x48 }
  - { offsetInCU: 0x5FA6, offset: 0x2656F, size: 0x8, addend: 0x0, symName: __ZNSt3__114__construct_atB8ue170006I7SectionJS1_EPS1_EEPT_S4_DpOT0_, symObjAddr: 0x2E0C, symBinAddr: 0x10000A6E0, symSize: 0x40 }
  - { offsetInCU: 0x601A, offset: 0x265E3, size: 0x8, addend: 0x0, symName: __ZNSt3__112__to_addressB8ue170006INS_16reverse_iteratorIP7SectionEEvEEu7__decayIDTclsr19__to_address_helperIT_EE6__callclsr3stdE7declvalIRKS5_EEEEES7_, symObjAddr: 0x2E4C, symBinAddr: 0x10000A720, symSize: 0x24 }
  - { offsetInCU: 0x6051, offset: 0x2661A, size: 0x8, addend: 0x0, symName: __ZNSt3__14moveB8ue170006INS_16reverse_iteratorIP7SectionEES4_EET0_T_S6_S5_, symObjAddr: 0x2EB8, symBinAddr: 0x10000A78C, symSize: 0x78 }
  - { offsetInCU: 0x60D5, offset: 0x2669E, size: 0x8, addend: 0x0, symName: __ZNSt3__16__moveB8ue170006INS_17_ClassicAlgPolicyENS_16reverse_iteratorIP7SectionEES5_S5_EENS_4pairIT0_T2_EES7_T1_S8_, symObjAddr: 0x2FA0, symBinAddr: 0x10000A874, symSize: 0x64 }
  - { offsetInCU: 0x6141, offset: 0x2670A, size: 0x8, addend: 0x0, symName: __ZNSt3__123__dispatch_copy_or_moveB8ue170006INS_17_ClassicAlgPolicyENS_11__move_loopIS1_EENS_14__move_trivialENS_16reverse_iteratorIP7SectionEES8_S8_EENS_4pairIT2_T4_EESA_T3_SB_, symObjAddr: 0x3004, symBinAddr: 0x10000A8D8, symSize: 0x64 }
  - { offsetInCU: 0x61BF, offset: 0x26788, size: 0x8, addend: 0x0, symName: __ZNSt3__121__unwrap_and_dispatchB8ue170006INS_10__overloadINS_11__move_loopINS_17_ClassicAlgPolicyEEENS_14__move_trivialEEENS_16reverse_iteratorIP7SectionEESA_SA_Li0EEENS_4pairIT0_T2_EESC_T1_SD_, symObjAddr: 0x3068, symBinAddr: 0x10000A93C, symSize: 0x12C }
  - { offsetInCU: 0x6250, offset: 0x26819, size: 0x8, addend: 0x0, symName: __ZNSt3__114__unwrap_rangeB8ue170006INS_16reverse_iteratorIP7SectionEES4_EENS_4pairIT0_S6_EET_S8_, symObjAddr: 0x3194, symBinAddr: 0x10000AA68, symSize: 0x84 }
  - { offsetInCU: 0x639B, offset: 0x26964, size: 0x8, addend: 0x0, symName: __ZNSt3__113__unwrap_iterB8ue170006INS_16reverse_iteratorIP7SectionEENS_18__unwrap_iter_implIS4_Lb0EEELi0EEEDTclsrT0_8__unwrapclsr3stdE7declvalIT_EEEES8_, symObjAddr: 0x32B4, symBinAddr: 0x10000AB88, symSize: 0x44 }
  - { offsetInCU: 0x63E0, offset: 0x269A9, size: 0x8, addend: 0x0, symName: __ZNSt3__19make_pairB8ue170006INS_16reverse_iteratorIP7SectionEES4_EENS_4pairINS_18__unwrap_ref_decayIT_E4typeENS6_IT0_E4typeEEEOS7_OSA_, symObjAddr: 0x32F8, symBinAddr: 0x10000ABCC, symSize: 0x38 }
  - { offsetInCU: 0x642F, offset: 0x269F8, size: 0x8, addend: 0x0, symName: __ZNSt3__114__rewrap_rangeB8ue170006INS_16reverse_iteratorIP7SectionEES4_EET_S5_T0_, symObjAddr: 0x3330, symBinAddr: 0x10000AC04, symSize: 0x5C }
  - { offsetInCU: 0x647B, offset: 0x26A44, size: 0x8, addend: 0x0, symName: __ZNSt3__113__rewrap_iterB8ue170006INS_16reverse_iteratorIP7SectionEES4_NS_18__unwrap_iter_implIS4_Lb0EEEEET_S7_T0_, symObjAddr: 0x338C, symBinAddr: 0x10000AC60, symSize: 0x88 }
  - { offsetInCU: 0x6A17, offset: 0x26FE0, size: 0x8, addend: 0x0, symName: __ZNSt3__16vectorI7SectionNS_9allocatorIS1_EEE26__swap_out_circular_bufferERNS_14__split_bufferIS1_RS3_EE, symObjAddr: 0x236C, symBinAddr: 0x100009EF4, symSize: 0x110 }
  - { offsetInCU: 0x87BB, offset: 0x28D84, size: 0x8, addend: 0x0, symName: _main, symObjAddr: 0x0, symBinAddr: 0x100008DBC, symSize: 0x40C }
  - { offsetInCU: 0x887F, offset: 0x28E48, size: 0x8, addend: 0x0, symName: __ZNSt3__112basic_stringIcNS_11char_traitsIcEENS_9allocatorIcEEEC1B8ue170006ILi0EEEPKc, symObjAddr: 0x40C, symBinAddr: 0x1000091C8, symSize: 0x34 }
  - { offsetInCU: 0x88BD, offset: 0x28E86, size: 0x8, addend: 0x0, symName: __ZN5PlaneC1E6VectorS0_, symObjAddr: 0x490, symBinAddr: 0x1000091FC, symSize: 0x5C }
  - { offsetInCU: 0x8901, offset: 0x28ECA, size: 0x8, addend: 0x0, symName: __ZNSt3__16vectorI7SectionNS_9allocatorIS1_EEEC1B8ue170006Ev, symObjAddr: 0x4EC, symBinAddr: 0x100009258, symSize: 0x2C }
  - { offsetInCU: 0x8929, offset: 0x28EF2, size: 0x8, addend: 0x0, symName: __ZNSt3__16vectorI5FacetNS_9allocatorIS1_EEEixB8ue170006Em, symObjAddr: 0x60C, symBinAddr: 0x1000092DC, symSize: 0x2C }
  - { offsetInCU: 0x895D, offset: 0x28F26, size: 0x8, addend: 0x0, symName: __ZNSt3__16vectorI7SectionNS_9allocatorIS1_EEE9push_backB8ue170006ERKS1_, symObjAddr: 0x638, symBinAddr: 0x100009308, symSize: 0x6C }
  - { offsetInCU: 0x8993, offset: 0x28F5C, size: 0x8, addend: 0x0, symName: __ZNSt3__16vectorI7SectionNS_9allocatorIS1_EEED1B8ue170006Ev, symObjAddr: 0x6A4, symBinAddr: 0x100009374, symSize: 0x2C }
  - { offsetInCU: 0x89BB, offset: 0x28F84, size: 0x8, addend: 0x0, symName: __ZN5PlaneC2E6VectorS0_, symObjAddr: 0x768, symBinAddr: 0x1000093D4, symSize: 0x4C }
  - { offsetInCU: 0x89FF, offset: 0x28FC8, size: 0x8, addend: 0x0, symName: __ZNSt3__112basic_stringIcNS_11char_traitsIcEENS_9allocatorIcEEEC2B8ue170006ILi0EEEPKc, symObjAddr: 0x7B4, symBinAddr: 0x100009420, symSize: 0x58 }
  - { offsetInCU: 0x8A42, offset: 0x2900B, size: 0x8, addend: 0x0, symName: __ZNSt3__16vectorI7SectionNS_9allocatorIS1_EEEC2B8ue170006Ev, symObjAddr: 0xEF8, symBinAddr: 0x100009478, symSize: 0x44 }
  - { offsetInCU: 0x8A6F, offset: 0x29038, size: 0x8, addend: 0x0, symName: __ZNSt3__117__compressed_pairIP7SectionNS_9allocatorIS1_EEEC1B8ue170006IDnNS_18__default_init_tagEEEOT_OT0_, symObjAddr: 0xF3C, symBinAddr: 0x1000094BC, symSize: 0x3C }
  - { offsetInCU: 0x8AC5, offset: 0x2908E, size: 0x8, addend: 0x0, symName: __ZNSt3__117__compressed_pairIP7SectionNS_9allocatorIS1_EEEC2B8ue170006IDnNS_18__default_init_tagEEEOT_OT0_, symObjAddr: 0xF78, symBinAddr: 0x1000094F8, symSize: 0x40 }
  - { offsetInCU: 0x8B1B, offset: 0x290E4, size: 0x8, addend: 0x0, symName: __ZNSt3__122__compressed_pair_elemIP7SectionLi0ELb0EEC2B8ue170006IDnvEEOT_, symObjAddr: 0xFB8, symBinAddr: 0x100009538, symSize: 0x1C }
  - { offsetInCU: 0x8B5C, offset: 0x29125, size: 0x8, addend: 0x0, symName: __ZNSt3__122__compressed_pair_elemINS_9allocatorI7SectionEELi1ELb1EEC2B8ue170006ENS_18__default_init_tagE, symObjAddr: 0xFD4, symBinAddr: 0x100009554, symSize: 0x2C }
  - { offsetInCU: 0x8B8E, offset: 0x29157, size: 0x8, addend: 0x0, symName: __ZNSt3__19allocatorI7SectionEC2B8ue170006Ev, symObjAddr: 0x1000, symBinAddr: 0x100009580, symSize: 0x2C }
  - { offsetInCU: 0x8BB6, offset: 0x2917F, size: 0x8, addend: 0x0, symName: __ZNSt3__116__non_trivial_ifILb1ENS_9allocatorI7SectionEEEC2B8ue170006Ev, symObjAddr: 0x102C, symBinAddr: 0x1000095AC, symSize: 0x14 }
  - { offsetInCU: 0x8BDE, offset: 0x291A7, size: 0x8, addend: 0x0, symName: __ZNSt3__16vectorI7SectionNS_9allocatorIS1_EEED2B8ue170006Ev, symObjAddr: 0x1040, symBinAddr: 0x1000095C0, symSize: 0x3C }
  - { offsetInCU: 0x8C06, offset: 0x291CF, size: 0x8, addend: 0x0, symName: __ZNSt3__16vectorI7SectionNS_9allocatorIS1_EEE16__destroy_vectorC1B8ue170006ERS4_, symObjAddr: 0x107C, symBinAddr: 0x1000095FC, symSize: 0x34 }
  - { offsetInCU: 0x8C3D, offset: 0x29206, size: 0x8, addend: 0x0, symName: __ZNSt3__16vectorI7SectionNS_9allocatorIS1_EEE16__destroy_vectorclB8ue170006Ev, symObjAddr: 0x10B0, symBinAddr: 0x100009630, symSize: 0x90 }
  - { offsetInCU: 0x8C61, offset: 0x2922A, size: 0x8, addend: 0x0, symName: __ZNSt3__16vectorI7SectionNS_9allocatorIS1_EEE16__destroy_vectorC2B8ue170006ERS4_, symObjAddr: 0x1140, symBinAddr: 0x1000096C0, symSize: 0x20 }
  - { offsetInCU: 0x8C98, offset: 0x29261, size: 0x8, addend: 0x0, symName: __ZNSt3__16vectorI7SectionNS_9allocatorIS1_EEE7__clearB8ue170006Ev, symObjAddr: 0x1160, symBinAddr: 0x1000096E0, symSize: 0x28 }
  - { offsetInCU: 0x8CBC, offset: 0x29285, size: 0x8, addend: 0x0, symName: __ZNKSt3__16vectorI7SectionNS_9allocatorIS1_EEE17__annotate_deleteB8ue170006Ev, symObjAddr: 0x1188, symBinAddr: 0x100009708, symSize: 0xD4 }
  - { offsetInCU: 0x8CE0, offset: 0x292A9, size: 0x8, addend: 0x0, symName: __ZNSt3__116allocator_traitsINS_9allocatorI7SectionEEE10deallocateB8ue170006ERS3_PS2_m, symObjAddr: 0x125C, symBinAddr: 0x1000097DC, symSize: 0x34 }
  - { offsetInCU: 0x8D21, offset: 0x292EA, size: 0x8, addend: 0x0, symName: __ZNSt3__16vectorI7SectionNS_9allocatorIS1_EEE7__allocB8ue170006Ev, symObjAddr: 0x1290, symBinAddr: 0x100009810, symSize: 0x28 }
  - { offsetInCU: 0x8D45, offset: 0x2930E, size: 0x8, addend: 0x0, symName: __ZNKSt3__16vectorI7SectionNS_9allocatorIS1_EEE8capacityB8ue170006Ev, symObjAddr: 0x12B8, symBinAddr: 0x100009838, symSize: 0x40 }
  - { offsetInCU: 0x8D69, offset: 0x29332, size: 0x8, addend: 0x0, symName: __ZNSt3__16vectorI7SectionNS_9allocatorIS1_EEE22__base_destruct_at_endB8ue170006EPS1_, symObjAddr: 0x12F8, symBinAddr: 0x100009878, symSize: 0xA0 }
  - { offsetInCU: 0x8DAB, offset: 0x29374, size: 0x8, addend: 0x0, symName: __ZNSt3__116allocator_traitsINS_9allocatorI7SectionEEE7destroyB8ue170006IS2_vEEvRS3_PT_, symObjAddr: 0x1398, symBinAddr: 0x100009918, symSize: 0x2C }
  - { offsetInCU: 0x8DE8, offset: 0x293B1, size: 0x8, addend: 0x0, symName: __ZNSt3__19allocatorI7SectionE7destroyB8ue170006EPS1_, symObjAddr: 0x13D8, symBinAddr: 0x100009958, symSize: 0x14 }
  - { offsetInCU: 0x8E1A, offset: 0x293E3, size: 0x8, addend: 0x0, symName: __ZNKSt3__16vectorI7SectionNS_9allocatorIS1_EEE31__annotate_contiguous_containerB8ue170006EPKvS6_S6_S6_, symObjAddr: 0x13EC, symBinAddr: 0x10000996C, symSize: 0x20 }
  - { offsetInCU: 0x8E6E, offset: 0x29437, size: 0x8, addend: 0x0, symName: __ZNKSt3__16vectorI7SectionNS_9allocatorIS1_EEE4dataB8ue170006Ev, symObjAddr: 0x140C, symBinAddr: 0x10000998C, symSize: 0x28 }
  - { offsetInCU: 0x8E92, offset: 0x2945B, size: 0x8, addend: 0x0, symName: __ZNKSt3__16vectorI7SectionNS_9allocatorIS1_EEE4sizeB8ue170006Ev, symObjAddr: 0x1434, symBinAddr: 0x1000099B4, symSize: 0x28 }
  - { offsetInCU: 0x8EB6, offset: 0x2947F, size: 0x8, addend: 0x0, symName: __ZNSt3__19allocatorI7SectionE10deallocateB8ue170006EPS1_m, symObjAddr: 0x145C, symBinAddr: 0x1000099DC, symSize: 0x74 }
  - { offsetInCU: 0x8EF6, offset: 0x294BF, size: 0x8, addend: 0x0, symName: __ZNSt3__117__compressed_pairIP7SectionNS_9allocatorIS1_EEE6secondB8ue170006Ev, symObjAddr: 0x14D0, symBinAddr: 0x100009A50, symSize: 0x24 }
  - { offsetInCU: 0x8F1A, offset: 0x294E3, size: 0x8, addend: 0x0, symName: __ZNSt3__122__compressed_pair_elemINS_9allocatorI7SectionEELi1ELb1EE5__getB8ue170006Ev, symObjAddr: 0x14F4, symBinAddr: 0x100009A74, symSize: 0x14 }
  - { offsetInCU: 0x8F3E, offset: 0x29507, size: 0x8, addend: 0x0, symName: __ZNKSt3__16vectorI7SectionNS_9allocatorIS1_EEE9__end_capB8ue170006Ev, symObjAddr: 0x1508, symBinAddr: 0x100009A88, symSize: 0x28 }
  - { offsetInCU: 0x8F62, offset: 0x2952B, size: 0x8, addend: 0x0, symName: __ZNKSt3__117__compressed_pairIP7SectionNS_9allocatorIS1_EEE5firstB8ue170006Ev, symObjAddr: 0x1530, symBinAddr: 0x100009AB0, symSize: 0x24 }
  - { offsetInCU: 0x8F86, offset: 0x2954F, size: 0x8, addend: 0x0, symName: __ZNKSt3__122__compressed_pair_elemIP7SectionLi0ELb0EE5__getB8ue170006Ev, symObjAddr: 0x1554, symBinAddr: 0x100009AD4, symSize: 0x14 }
  - { offsetInCU: 0x8FC8, offset: 0x29591, size: 0x8, addend: 0x0, symName: __ZNSt3__16vectorI7SectionNS_9allocatorIS1_EEE9__end_capB8ue170006Ev, symObjAddr: 0x1F60, symBinAddr: 0x100009AE8, symSize: 0x28 }
  - { offsetInCU: 0x8FEC, offset: 0x295B5, size: 0x8, addend: 0x0, symName: __ZNSt3__16vectorI7SectionNS_9allocatorIS1_EEE22__construct_one_at_endB8ue170006IJRKS1_EEEvDpOT_, symObjAddr: 0x1F88, symBinAddr: 0x100009B10, symSize: 0x98 }
  - { offsetInCU: 0x9039, offset: 0x29602, size: 0x8, addend: 0x0, symName: __ZNSt3__16vectorI7SectionNS_9allocatorIS1_EEE21__push_back_slow_pathIRKS1_EEvOT_, symObjAddr: 0x2020, symBinAddr: 0x100009BA8, symSize: 0xE0 }
  - { offsetInCU: 0x9096, offset: 0x2965F, size: 0x8, addend: 0x0, symName: __ZNSt3__117__compressed_pairIP7SectionNS_9allocatorIS1_EEE5firstB8ue170006Ev, symObjAddr: 0x2100, symBinAddr: 0x100009C88, symSize: 0x24 }
  - { offsetInCU: 0x90BA, offset: 0x29683, size: 0x8, addend: 0x0, symName: __ZNSt3__122__compressed_pair_elemIP7SectionLi0ELb0EE5__getB8ue170006Ev, symObjAddr: 0x2124, symBinAddr: 0x100009CAC, symSize: 0x14 }
  - { offsetInCU: 0x90F7, offset: 0x296C0, size: 0x8, addend: 0x0, symName: __ZNSt3__16vectorI7SectionNS_9allocatorIS1_EEE21_ConstructTransactionC1B8ue170006ERS4_m, symObjAddr: 0x2138, symBinAddr: 0x100009CC0, symSize: 0x3C }
  - { offsetInCU: 0x913D, offset: 0x29706, size: 0x8, addend: 0x0, symName: __ZNSt3__116allocator_traitsINS_9allocatorI7SectionEEE9constructB8ue170006IS2_JRKS2_EvEEvRS3_PT_DpOT0_, symObjAddr: 0x2174, symBinAddr: 0x100009CFC, symSize: 0x34 }
  - { offsetInCU: 0x9195, offset: 0x2975E, size: 0x8, addend: 0x0, symName: __ZNSt3__16vectorI7SectionNS_9allocatorIS1_EEE21_ConstructTransactionD1B8ue170006Ev, symObjAddr: 0x21A8, symBinAddr: 0x100009D30, symSize: 0x2C }
  - { offsetInCU: 0x91BD, offset: 0x29786, size: 0x8, addend: 0x0, symName: __ZNSt3__16vectorI7SectionNS_9allocatorIS1_EEE21_ConstructTransactionC2B8ue170006ERS4_m, symObjAddr: 0x21D4, symBinAddr: 0x100009D5C, symSize: 0x4C }
  - { offsetInCU: 0x9203, offset: 0x297CC, size: 0x8, addend: 0x0, symName: __ZNSt3__19allocatorI7SectionE9constructB8ue170006IS1_JRKS1_EEEvPT_DpOT0_, symObjAddr: 0x2220, symBinAddr: 0x100009DA8, symSize: 0x34 }
  - { offsetInCU: 0x9258, offset: 0x29821, size: 0x8, addend: 0x0, symName: __ZNSt3__16vectorI7SectionNS_9allocatorIS1_EEE21_ConstructTransactionD2B8ue170006Ev, symObjAddr: 0x2254, symBinAddr: 0x100009DDC, symSize: 0x20 }
  - { offsetInCU: 0x927F, offset: 0x29848, size: 0x8, addend: 0x0, symName: __ZNKSt3__16vectorI7SectionNS_9allocatorIS1_EEE11__recommendB8ue170006Em, symObjAddr: 0x2274, symBinAddr: 0x100009DFC, symSize: 0xB4 }
  - { offsetInCU: 0x92D3, offset: 0x2989C, size: 0x8, addend: 0x0, symName: __ZNSt3__114__split_bufferI7SectionRNS_9allocatorIS1_EEEC1EmmS4_, symObjAddr: 0x2328, symBinAddr: 0x100009EB0, symSize: 0x44 }
  - { offsetInCU: 0x9328, offset: 0x298F1, size: 0x8, addend: 0x0, symName: __ZNSt3__114__split_bufferI7SectionRNS_9allocatorIS1_EEED1Ev, symObjAddr: 0x247C, symBinAddr: 0x10000A004, symSize: 0x2C }
  - { offsetInCU: 0x9352, offset: 0x2991B, size: 0x8, addend: 0x0, symName: __ZNKSt3__16vectorI7SectionNS_9allocatorIS1_EEE8max_sizeEv, symObjAddr: 0x24A8, symBinAddr: 0x10000A030, symSize: 0x74 }
  - { offsetInCU: 0x9379, offset: 0x29942, size: 0x8, addend: 0x0, symName: __ZNKSt3__16vectorI7SectionNS_9allocatorIS1_EEE20__throw_length_errorB8ue170006Ev, symObjAddr: 0x251C, symBinAddr: 0x10000A0A4, symSize: 0x1C }
  - { offsetInCU: 0x93A7, offset: 0x29970, size: 0x8, addend: 0x0, symName: __ZNSt3__116allocator_traitsINS_9allocatorI7SectionEEE8max_sizeB8ue170006IS3_vEEmRKS3_, symObjAddr: 0x2590, symBinAddr: 0x10000A0C0, symSize: 0x24 }
  - { offsetInCU: 0x93D5, offset: 0x2999E, size: 0x8, addend: 0x0, symName: __ZNKSt3__16vectorI7SectionNS_9allocatorIS1_EEE7__allocB8ue170006Ev, symObjAddr: 0x25B4, symBinAddr: 0x10000A0E4, symSize: 0x28 }
  - { offsetInCU: 0x93F9, offset: 0x299C2, size: 0x8, addend: 0x0, symName: __ZNKSt3__19allocatorI7SectionE8max_sizeB8ue170006Ev, symObjAddr: 0x2678, symBinAddr: 0x10000A10C, symSize: 0x18 }
  - { offsetInCU: 0x941D, offset: 0x299E6, size: 0x8, addend: 0x0, symName: __ZNKSt3__117__compressed_pairIP7SectionNS_9allocatorIS1_EEE6secondB8ue170006Ev, symObjAddr: 0x2690, symBinAddr: 0x10000A124, symSize: 0x24 }
  - { offsetInCU: 0x9441, offset: 0x29A0A, size: 0x8, addend: 0x0, symName: __ZNKSt3__122__compressed_pair_elemINS_9allocatorI7SectionEELi1ELb1EE5__getB8ue170006Ev, symObjAddr: 0x26B4, symBinAddr: 0x10000A148, symSize: 0x14 }
  - { offsetInCU: 0x9465, offset: 0x29A2E, size: 0x8, addend: 0x0, symName: __ZNSt3__114__split_bufferI7SectionRNS_9allocatorIS1_EEEC2EmmS4_, symObjAddr: 0x2808, symBinAddr: 0x10000A15C, symSize: 0xE0 }
  - { offsetInCU: 0x94D7, offset: 0x29AA0, size: 0x8, addend: 0x0, symName: __ZNSt3__117__compressed_pairIP7SectionRNS_9allocatorIS1_EEEC1B8ue170006IDnS5_EEOT_OT0_, symObjAddr: 0x28E8, symBinAddr: 0x10000A23C, symSize: 0x3C }
  - { offsetInCU: 0x952D, offset: 0x29AF6, size: 0x8, addend: 0x0, symName: __ZNSt3__114__split_bufferI7SectionRNS_9allocatorIS1_EEE7__allocB8ue170006Ev, symObjAddr: 0x2964, symBinAddr: 0x10000A2B8, symSize: 0x28 }
  - { offsetInCU: 0x9551, offset: 0x29B1A, size: 0x8, addend: 0x0, symName: __ZNSt3__114__split_bufferI7SectionRNS_9allocatorIS1_EEE9__end_capB8ue170006Ev, symObjAddr: 0x298C, symBinAddr: 0x10000A2E0, symSize: 0x28 }
  - { offsetInCU: 0x9575, offset: 0x29B3E, size: 0x8, addend: 0x0, symName: __ZNSt3__117__compressed_pairIP7SectionRNS_9allocatorIS1_EEEC2B8ue170006IDnS5_EEOT_OT0_, symObjAddr: 0x29B4, symBinAddr: 0x10000A308, symSize: 0x48 }
  - { offsetInCU: 0x95CB, offset: 0x29B94, size: 0x8, addend: 0x0, symName: __ZNSt3__122__compressed_pair_elemIRNS_9allocatorI7SectionEELi1ELb0EEC2B8ue170006IS4_vEEOT_, symObjAddr: 0x29FC, symBinAddr: 0x10000A350, symSize: 0x20 }
  - { offsetInCU: 0x960C, offset: 0x29BD5, size: 0x8, addend: 0x0, symName: __ZNSt3__19allocatorI7SectionE8allocateB8ue170006Em, symObjAddr: 0x2A1C, symBinAddr: 0x10000A370, symSize: 0x8C }
  - { offsetInCU: 0x963E, offset: 0x29C07, size: 0x8, addend: 0x0, symName: __ZNSt3__117__compressed_pairIP7SectionRNS_9allocatorIS1_EEE6secondB8ue170006Ev, symObjAddr: 0x2B28, symBinAddr: 0x10000A3FC, symSize: 0x28 }
  - { offsetInCU: 0x9662, offset: 0x29C2B, size: 0x8, addend: 0x0, symName: __ZNSt3__122__compressed_pair_elemIRNS_9allocatorI7SectionEELi1ELb0EE5__getB8ue170006Ev, symObjAddr: 0x2B50, symBinAddr: 0x10000A424, symSize: 0x18 }
  - { offsetInCU: 0x9686, offset: 0x29C4F, size: 0x8, addend: 0x0, symName: __ZNSt3__117__compressed_pairIP7SectionRNS_9allocatorIS1_EEE5firstB8ue170006Ev, symObjAddr: 0x2B68, symBinAddr: 0x10000A43C, symSize: 0x24 }
  - { offsetInCU: 0x96AA, offset: 0x29C73, size: 0x8, addend: 0x0, symName: __ZNSt3__116reverse_iteratorIP7SectionEC1B8ue170006ES2_, symObjAddr: 0x2C74, symBinAddr: 0x10000A548, symSize: 0x34 }
  - { offsetInCU: 0x96E0, offset: 0x29CA9, size: 0x8, addend: 0x0, symName: __ZNKSt3__116reverse_iteratorIP7SectionE4baseB8ue170006Ev, symObjAddr: 0x2CA8, symBinAddr: 0x10000A57C, symSize: 0x18 }
  - { offsetInCU: 0x9704, offset: 0x29CCD, size: 0x8, addend: 0x0, symName: __ZNKSt3__16vectorI7SectionNS_9allocatorIS1_EEE14__annotate_newB8ue170006Em, symObjAddr: 0x2CFC, symBinAddr: 0x10000A5D0, symSize: 0xC8 }
  - { offsetInCU: 0x9737, offset: 0x29D00, size: 0x8, addend: 0x0, symName: __ZNKSt3__116reverse_iteratorIP7SectionEdeB8ue170006Ev, symObjAddr: 0x2E70, symBinAddr: 0x10000A744, symSize: 0x28 }
  - { offsetInCU: 0x9769, offset: 0x29D32, size: 0x8, addend: 0x0, symName: __ZNSt3__116reverse_iteratorIP7SectionEppB8ue170006Ev, symObjAddr: 0x2E98, symBinAddr: 0x10000A76C, symSize: 0x20 }
  - { offsetInCU: 0x9792, offset: 0x29D5B, size: 0x8, addend: 0x0, symName: __ZNSt3__119__to_address_helperINS_16reverse_iteratorIP7SectionEEvE6__callB8ue170006ERKS4_, symObjAddr: 0x2F30, symBinAddr: 0x10000A804, symSize: 0x4C }
  - { offsetInCU: 0x97B4, offset: 0x29D7D, size: 0x8, addend: 0x0, symName: __ZNKSt3__116reverse_iteratorIP7SectionEptB8ue170006Ev, symObjAddr: 0x2F7C, symBinAddr: 0x10000A850, symSize: 0x24 }
  - { offsetInCU: 0x97FB, offset: 0x29DC4, size: 0x8, addend: 0x0, symName: __ZNKSt3__111__move_loopINS_17_ClassicAlgPolicyEEclB8ue170006INS_16reverse_iteratorIP7SectionEES7_S7_EENS_4pairIT_T1_EES9_T0_SA_, symObjAddr: 0x3218, symBinAddr: 0x10000AAEC, symSize: 0x9C }
  - { offsetInCU: 0x9869, offset: 0x29E32, size: 0x8, addend: 0x0, symName: __ZNSt3__18_IterOpsINS_17_ClassicAlgPolicyEE11__iter_moveB8ue170006IRNS_16reverse_iteratorIP7SectionEEEENS_9enable_ifIXsr12is_referenceIDTdeclsr3stdE7declvalIRT_EEEEE5valueEDTclsr3stdE4movedeclsr3stdE7declvalISB_EEEEE4typeEOSA_, symObjAddr: 0x3414, symBinAddr: 0x10000ACE8, symSize: 0x28 }
  - { offsetInCU: 0x9894, offset: 0x29E5D, size: 0x8, addend: 0x0, symName: __ZNSt3__18_IterOpsINS_17_ClassicAlgPolicyEE25__validate_iter_referenceB8ue170006IRNS_16reverse_iteratorIP7SectionEEEEvv, symObjAddr: 0x343C, symBinAddr: 0x10000AD10, symSize: 0x4 }
  - { offsetInCU: 0x98B1, offset: 0x29E7A, size: 0x8, addend: 0x0, symName: __ZNSt3__118__unwrap_iter_implINS_16reverse_iteratorIP7SectionEELb0EE8__unwrapB8ue170006ES4_, symObjAddr: 0x3440, symBinAddr: 0x10000AD14, symSize: 0x24 }
  - { offsetInCU: 0x98D3, offset: 0x29E9C, size: 0x8, addend: 0x0, symName: __ZNSt3__14pairINS_16reverse_iteratorIP7SectionEES4_EC1B8ue170006ERKS4_S7_, symObjAddr: 0x3464, symBinAddr: 0x10000AD38, symSize: 0x3C }
  - { offsetInCU: 0x9917, offset: 0x29EE0, size: 0x8, addend: 0x0, symName: __ZNSt3__14pairINS_16reverse_iteratorIP7SectionEES4_EC2B8ue170006ERKS4_S7_, symObjAddr: 0x34A0, symBinAddr: 0x10000AD74, symSize: 0x34 }
  - { offsetInCU: 0x995B, offset: 0x29F24, size: 0x8, addend: 0x0, symName: __ZNSt3__118__unwrap_iter_implINS_16reverse_iteratorIP7SectionEELb0EE8__rewrapB8ue170006ES4_S4_, symObjAddr: 0x34D4, symBinAddr: 0x10000ADA8, symSize: 0x2C }
  - { offsetInCU: 0x9987, offset: 0x29F50, size: 0x8, addend: 0x0, symName: __ZNSt3__116reverse_iteratorIP7SectionEC2B8ue170006ES2_, symObjAddr: 0x3500, symBinAddr: 0x10000ADD4, symSize: 0x28 }
  - { offsetInCU: 0x99BD, offset: 0x29F86, size: 0x8, addend: 0x0, symName: __ZNSt3__114__split_bufferI7SectionRNS_9allocatorIS1_EEED2Ev, symObjAddr: 0x3528, symBinAddr: 0x10000ADFC, symSize: 0x80 }
  - { offsetInCU: 0x99E8, offset: 0x29FB1, size: 0x8, addend: 0x0, symName: __ZNSt3__114__split_bufferI7SectionRNS_9allocatorIS1_EEE5clearB8ue170006Ev, symObjAddr: 0x35A8, symBinAddr: 0x10000AE7C, symSize: 0x28 }
  - { offsetInCU: 0x9A0C, offset: 0x29FD5, size: 0x8, addend: 0x0, symName: __ZNKSt3__114__split_bufferI7SectionRNS_9allocatorIS1_EEE8capacityB8ue170006Ev, symObjAddr: 0x35D0, symBinAddr: 0x10000AEA4, symSize: 0x40 }
  - { offsetInCU: 0x9A30, offset: 0x29FF9, size: 0x8, addend: 0x0, symName: __ZNSt3__114__split_bufferI7SectionRNS_9allocatorIS1_EEE17__destruct_at_endB8ue170006EPS1_, symObjAddr: 0x3610, symBinAddr: 0x10000AEE4, symSize: 0x2C }
  - { offsetInCU: 0x9A61, offset: 0x2A02A, size: 0x8, addend: 0x0, symName: __ZNSt3__114__split_bufferI7SectionRNS_9allocatorIS1_EEE17__destruct_at_endB8ue170006EPS1_NS_17integral_constantIbLb0EEE, symObjAddr: 0x363C, symBinAddr: 0x10000AF10, symSize: 0x94 }
  - { offsetInCU: 0x9AA0, offset: 0x2A069, size: 0x8, addend: 0x0, symName: __ZNKSt3__114__split_bufferI7SectionRNS_9allocatorIS1_EEE9__end_capB8ue170006Ev, symObjAddr: 0x36D0, symBinAddr: 0x10000AFA4, symSize: 0x28 }
  - { offsetInCU: 0x9AC4, offset: 0x2A08D, size: 0x8, addend: 0x0, symName: __ZNKSt3__117__compressed_pairIP7SectionRNS_9allocatorIS1_EEE5firstB8ue170006Ev, symObjAddr: 0x36F8, symBinAddr: 0x10000AFCC, symSize: 0x24 }
...
