---
triple:          'arm64-apple-darwin'
binary-path:     '/Users/krisztiancsuta/Documents/GitHub/STL_Slicer/Code_Final/Source_code/Plane'
relocations:
  - { offsetInCU: 0x2D97, offset: 0x2D97, size: 0x8, addend: 0x0, symName: __ZNSt3__124__put_character_sequenceB8ue170006IcNS_11char_traitsIcEEEERNS_13basic_ostreamIT_T0_EES7_PKS4_m, symObjAddr: 0xC4, symBinAddr: 0x100001B64, symSize: 0x1F4 }
  - { offsetInCU: 0x46E4, offset: 0x46E4, size: 0x8, addend: 0x0, symName: __ZNSt3__1lsB8ue170006INS_11char_traitsIcEEEERNS_13basic_ostreamIcT_EES6_PKc, symObjAddr: 0x6C, symBinAddr: 0x100001B0C, symSize: 0x48 }
  - { offsetInCU: 0x472A, offset: 0x472A, size: 0x8, addend: 0x0, symName: __ZNSt3__116__pad_and_outputB8ue170006IcNS_11char_traitsIcEEEENS_19ostreambuf_iteratorIT_T0_EES6_PKS4_S8_S8_RNS_8ios_baseES4_, symObjAddr: 0x31C, symBinAddr: 0x100001DBC, symSize: 0x248 }
  - { offsetInCU: 0x47F9, offset: 0x47F9, size: 0x8, addend: 0x0, symName: __ZNSt3__112__to_addressB8ue170006IKcEEPT_S3_, symObjAddr: 0x898, symBinAddr: 0x100002338, symSize: 0x14 }
  - { offsetInCU: 0x482E, offset: 0x482E, size: 0x8, addend: 0x0, symName: __ZNSt3__130__libcpp_is_constant_evaluatedB8ue170006Ev, symObjAddr: 0x9C4, symBinAddr: 0x100002464, symSize: 0xC }
  - { offsetInCU: 0x487E, offset: 0x487E, size: 0x8, addend: 0x0, symName: __ZNSt3__19use_facetB8ue170006INS_5ctypeIcEEEERKT_RKNS_6localeE, symObjAddr: 0xB7C, symBinAddr: 0x10000261C, symSize: 0x2C }
  - { offsetInCU: 0x4D4B, offset: 0x4D4B, size: 0x8, addend: 0x0, symName: __ZNSt3__118__constexpr_strlenB8ue170006EPKc, symObjAddr: 0xC14, symBinAddr: 0x1000026B4, symSize: 0x24 }
  - { offsetInCU: 0x7323, offset: 0x7323, size: 0x8, addend: 0x0, symName: __ZlsRNSt3__113basic_ostreamIcNS_11char_traitsIcEEEERK5Facet, symObjAddr: 0x0, symBinAddr: 0x100001AA0, symSize: 0x6C }
  - { offsetInCU: 0x735D, offset: 0x735D, size: 0x8, addend: 0x0, symName: __Z17PlaneIntersectionRK5Plane, symObjAddr: 0xB4, symBinAddr: 0x100001B54, symSize: 0x10 }
  - { offsetInCU: 0x7389, offset: 0x7389, size: 0x8, addend: 0x0, symName: __ZNSt3__111char_traitsIcE6lengthB8ue170006EPKc, symObjAddr: 0x2B8, symBinAddr: 0x100001D58, symSize: 0x48 }
  - { offsetInCU: 0x73C9, offset: 0x73C9, size: 0x8, addend: 0x0, symName: __ZNKSt3__113basic_ostreamIcNS_11char_traitsIcEEE6sentrycvbB8ue170006Ev, symObjAddr: 0x300, symBinAddr: 0x100001DA0, symSize: 0x1C }
  - { offsetInCU: 0x73ED, offset: 0x73ED, size: 0x8, addend: 0x0, symName: __ZNSt3__119ostreambuf_iteratorIcNS_11char_traitsIcEEEC1B8ue170006ERNS_13basic_ostreamIcS2_EE, symObjAddr: 0x564, symBinAddr: 0x100002004, symSize: 0x34 }
  - { offsetInCU: 0x7423, offset: 0x7423, size: 0x8, addend: 0x0, symName: __ZNKSt3__18ios_base5flagsB8ue170006Ev, symObjAddr: 0x598, symBinAddr: 0x100002038, symSize: 0x18 }
  - { offsetInCU: 0x7449, offset: 0x7449, size: 0x8, addend: 0x0, symName: __ZNKSt3__19basic_iosIcNS_11char_traitsIcEEE4fillB8ue170006Ev, symObjAddr: 0x5B0, symBinAddr: 0x100002050, symSize: 0x64 }
  - { offsetInCU: 0x746F, offset: 0x746F, size: 0x8, addend: 0x0, symName: __ZNKSt3__119ostreambuf_iteratorIcNS_11char_traitsIcEEE6failedB8ue170006Ev, symObjAddr: 0x614, symBinAddr: 0x1000020B4, symSize: 0x24 }
  - { offsetInCU: 0x7493, offset: 0x7493, size: 0x8, addend: 0x0, symName: __ZNSt3__19basic_iosIcNS_11char_traitsIcEEE8setstateB8ue170006Ej, symObjAddr: 0x638, symBinAddr: 0x1000020D8, symSize: 0x2C }
  - { offsetInCU: 0x74C6, offset: 0x74C6, size: 0x8, addend: 0x0, symName: __ZNKSt3__18ios_base5widthB8ue170006Ev, symObjAddr: 0x670, symBinAddr: 0x100002110, symSize: 0x18 }
  - { offsetInCU: 0x74EC, offset: 0x74EC, size: 0x8, addend: 0x0, symName: __ZNSt3__115basic_streambufIcNS_11char_traitsIcEEE5sputnB8ue170006EPKcl, symObjAddr: 0x688, symBinAddr: 0x100002128, symSize: 0x3C }
  - { offsetInCU: 0x752C, offset: 0x752C, size: 0x8, addend: 0x0, symName: __ZNSt3__112basic_stringIcNS_11char_traitsIcEENS_9allocatorIcEEEC1B8ue170006Emc, symObjAddr: 0x6C4, symBinAddr: 0x100002164, symSize: 0x3C }
  - { offsetInCU: 0x7572, offset: 0x7572, size: 0x8, addend: 0x0, symName: __ZNKSt3__112basic_stringIcNS_11char_traitsIcEENS_9allocatorIcEEE4dataB8ue170006Ev, symObjAddr: 0x700, symBinAddr: 0x1000021A0, symSize: 0x28 }
  - { offsetInCU: 0x7596, offset: 0x7596, size: 0x8, addend: 0x0, symName: __ZNSt3__18ios_base5widthB8ue170006El, symObjAddr: 0x728, symBinAddr: 0x1000021C8, symSize: 0x2C }
  - { offsetInCU: 0x75DA, offset: 0x75DA, size: 0x8, addend: 0x0, symName: __ZNSt3__112basic_stringIcNS_11char_traitsIcEENS_9allocatorIcEEEC2B8ue170006Emc, symObjAddr: 0x754, symBinAddr: 0x1000021F4, symSize: 0x4C }
  - { offsetInCU: 0x7625, offset: 0x7625, size: 0x8, addend: 0x0, symName: __ZNSt3__117__compressed_pairINS_12basic_stringIcNS_11char_traitsIcEENS_9allocatorIcEEE5__repES5_EC1B8ue170006INS_18__default_init_tagESA_EEOT_OT0_, symObjAddr: 0x7A0, symBinAddr: 0x100002240, symSize: 0x3C }
  - { offsetInCU: 0x767B, offset: 0x767B, size: 0x8, addend: 0x0, symName: __ZNSt3__117__compressed_pairINS_12basic_stringIcNS_11char_traitsIcEENS_9allocatorIcEEE5__repES5_EC2B8ue170006INS_18__default_init_tagESA_EEOT_OT0_, symObjAddr: 0x7DC, symBinAddr: 0x10000227C, symSize: 0x3C }
  - { offsetInCU: 0x76D1, offset: 0x76D1, size: 0x8, addend: 0x0, symName: __ZNSt3__122__compressed_pair_elemINS_12basic_stringIcNS_11char_traitsIcEENS_9allocatorIcEEE5__repELi0ELb0EEC2B8ue170006ENS_18__default_init_tagE, symObjAddr: 0x818, symBinAddr: 0x1000022B8, symSize: 0x14 }
  - { offsetInCU: 0x7703, offset: 0x7703, size: 0x8, addend: 0x0, symName: __ZNSt3__122__compressed_pair_elemINS_9allocatorIcEELi1ELb1EEC2B8ue170006ENS_18__default_init_tagE, symObjAddr: 0x82C, symBinAddr: 0x1000022CC, symSize: 0x2C }
  - { offsetInCU: 0x7735, offset: 0x7735, size: 0x8, addend: 0x0, symName: __ZNSt3__19allocatorIcEC2B8ue170006Ev, symObjAddr: 0x858, symBinAddr: 0x1000022F8, symSize: 0x2C }
  - { offsetInCU: 0x775D, offset: 0x775D, size: 0x8, addend: 0x0, symName: __ZNSt3__116__non_trivial_ifILb1ENS_9allocatorIcEEEC2B8ue170006Ev, symObjAddr: 0x884, symBinAddr: 0x100002324, symSize: 0x14 }
  - { offsetInCU: 0x7785, offset: 0x7785, size: 0x8, addend: 0x0, symName: __ZNKSt3__112basic_stringIcNS_11char_traitsIcEENS_9allocatorIcEEE13__get_pointerB8ue170006Ev, symObjAddr: 0x8AC, symBinAddr: 0x10000234C, symSize: 0x54 }
  - { offsetInCU: 0x77A9, offset: 0x77A9, size: 0x8, addend: 0x0, symName: __ZNKSt3__112basic_stringIcNS_11char_traitsIcEENS_9allocatorIcEEE9__is_longB8ue170006Ev, symObjAddr: 0x900, symBinAddr: 0x1000023A0, symSize: 0x74 }
  - { offsetInCU: 0x77CD, offset: 0x77CD, size: 0x8, addend: 0x0, symName: __ZNKSt3__112basic_stringIcNS_11char_traitsIcEENS_9allocatorIcEEE18__get_long_pointerB8ue170006Ev, symObjAddr: 0x974, symBinAddr: 0x100002414, symSize: 0x28 }
  - { offsetInCU: 0x77F1, offset: 0x77F1, size: 0x8, addend: 0x0, symName: __ZNKSt3__112basic_stringIcNS_11char_traitsIcEENS_9allocatorIcEEE19__get_short_pointerB8ue170006Ev, symObjAddr: 0x99C, symBinAddr: 0x10000243C, symSize: 0x28 }
  - { offsetInCU: 0x7815, offset: 0x7815, size: 0x8, addend: 0x0, symName: __ZNKSt3__117__compressed_pairINS_12basic_stringIcNS_11char_traitsIcEENS_9allocatorIcEEE5__repES5_E5firstB8ue170006Ev, symObjAddr: 0x9D0, symBinAddr: 0x100002470, symSize: 0x24 }
  - { offsetInCU: 0x7839, offset: 0x7839, size: 0x8, addend: 0x0, symName: __ZNKSt3__122__compressed_pair_elemINS_12basic_stringIcNS_11char_traitsIcEENS_9allocatorIcEEE5__repELi0ELb0EE5__getB8ue170006Ev, symObjAddr: 0x9F4, symBinAddr: 0x100002494, symSize: 0x14 }
  - { offsetInCU: 0x785D, offset: 0x785D, size: 0x8, addend: 0x0, symName: __ZNSt3__114pointer_traitsIPKcE10pointer_toB8ue170006ERS1_, symObjAddr: 0xA08, symBinAddr: 0x1000024A8, symSize: 0x14 }
  - { offsetInCU: 0x787F, offset: 0x787F, size: 0x8, addend: 0x0, symName: __ZNSt3__119ostreambuf_iteratorIcNS_11char_traitsIcEEEC2B8ue170006ERNS_13basic_ostreamIcS2_EE, symObjAddr: 0xA1C, symBinAddr: 0x1000024BC, symSize: 0x68 }
  - { offsetInCU: 0x78B5, offset: 0x78B5, size: 0x8, addend: 0x0, symName: __ZNKSt3__19basic_iosIcNS_11char_traitsIcEEE5rdbufB8ue170006Ev, symObjAddr: 0xA84, symBinAddr: 0x100002524, symSize: 0x24 }
  - { offsetInCU: 0x78DB, offset: 0x78DB, size: 0x8, addend: 0x0, symName: __ZNKSt3__18ios_base5rdbufB8ue170006Ev, symObjAddr: 0xAA8, symBinAddr: 0x100002548, symSize: 0x18 }
  - { offsetInCU: 0x78FF, offset: 0x78FF, size: 0x8, addend: 0x0, symName: __ZNSt3__111char_traitsIcE11eq_int_typeB8ue170006Eii, symObjAddr: 0xAC0, symBinAddr: 0x100002560, symSize: 0x28 }
  - { offsetInCU: 0x7931, offset: 0x7931, size: 0x8, addend: 0x0, symName: __ZNSt3__111char_traitsIcE3eofB8ue170006Ev, symObjAddr: 0xAE8, symBinAddr: 0x100002588, symSize: 0x8 }
  - { offsetInCU: 0x7944, offset: 0x7944, size: 0x8, addend: 0x0, symName: __ZNKSt3__19basic_iosIcNS_11char_traitsIcEEE5widenB8ue170006Ec, symObjAddr: 0xAF0, symBinAddr: 0x100002590, symSize: 0x8C }
  - { offsetInCU: 0x79B0, offset: 0x79B0, size: 0x8, addend: 0x0, symName: __ZNKSt3__15ctypeIcE5widenB8ue170006Ec, symObjAddr: 0xBA8, symBinAddr: 0x100002648, symSize: 0x38 }
  - { offsetInCU: 0x79E3, offset: 0x79E3, size: 0x8, addend: 0x0, symName: __ZNSt3__18ios_base8setstateB8ue170006Ej, symObjAddr: 0xBE0, symBinAddr: 0x100002680, symSize: 0x34 }
  - { offsetInCU: 0x4C, offset: 0x7D27, size: 0x8, addend: 0x0, symName: __ZN7STLFile4minZE, symObjAddr: 0x2F760, symBinAddr: 0x10000C000, symSize: 0x0 }
  - { offsetInCU: 0x5824, offset: 0xD4FF, size: 0x8, addend: 0x0, symName: __ZNSt3__1eqB8ue170006IcNS_11char_traitsIcEENS_9allocatorIcEEEEbRKNS_12basic_stringIT_T0_T1_EEPKS6_, symObjAddr: 0x5D4, symBinAddr: 0x100002CAC, symSize: 0xC0 }
  - { offsetInCU: 0x6630, offset: 0xE30B, size: 0x8, addend: 0x0, symName: __ZNSt3__17getlineB8ue170006IcNS_11char_traitsIcEENS_9allocatorIcEEEERNS_13basic_istreamIT_T0_EES9_RNS_12basic_stringIS6_S7_T1_EE, symObjAddr: 0x874, symBinAddr: 0x100002F40, symSize: 0x5C }
  - { offsetInCU: 0x6A1D, offset: 0xE6F8, size: 0x8, addend: 0x0, symName: __ZNSt3__112__to_addressB8ue170006I5FacetEEPT_S3_, symObjAddr: 0x15B0, symBinAddr: 0x100003C7C, symSize: 0x14 }
  - { offsetInCU: 0x6A52, offset: 0xE72D, size: 0x8, addend: 0x0, symName: __ZNSt3__119__libcpp_deallocateB8ue170006EPvmm, symObjAddr: 0x16C8, symBinAddr: 0x100003D88, symSize: 0x30 }
  - { offsetInCU: 0x6A9B, offset: 0xE776, size: 0x8, addend: 0x0, symName: __ZNSt3__127__do_deallocate_handle_sizeB8ue170006IJEEEvPvmDpT_, symObjAddr: 0x16F8, symBinAddr: 0x100003DB8, symSize: 0x28 }
  - { offsetInCU: 0x6ADB, offset: 0xE7B6, size: 0x8, addend: 0x0, symName: __ZNSt3__124__libcpp_operator_deleteB8ue170006IJPvEEEvDpT_, symObjAddr: 0x1720, symBinAddr: 0x100003DE0, symSize: 0x24 }
  - { offsetInCU: 0x6B11, offset: 0xE7EC, size: 0x8, addend: 0x0, symName: __ZNSt3__117__libcpp_allocateB8ue170006Emm, symObjAddr: 0x2190, symBinAddr: 0x1000044E4, symSize: 0x28 }
  - { offsetInCU: 0x6B4E, offset: 0xE829, size: 0x8, addend: 0x0, symName: __ZNSt3__121__libcpp_operator_newB8ue170006IJmEEEPvDpT_, symObjAddr: 0x21CC, symBinAddr: 0x100004520, symSize: 0x24 }
  - { offsetInCU: 0x6B87, offset: 0xE862, size: 0x8, addend: 0x0, symName: __ZNSt3__17getlineB8ue170006IcNS_11char_traitsIcEENS_9allocatorIcEEEERNS_13basic_istreamIT_T0_EES9_RNS_12basic_stringIS6_S7_T1_EES6_, symObjAddr: 0x2228, symBinAddr: 0x10000457C, symSize: 0x238 }
  - { offsetInCU: 0x6E84, offset: 0xEB5F, size: 0x8, addend: 0x0, symName: __ZNSt3__110__str_findB8ue170006IcmNS_11char_traitsIcEELm18446744073709551615EEET0_PKT_S3_S6_S3_S3_, symObjAddr: 0x2A28, symBinAddr: 0x100004C28, symSize: 0xE4 }
  - { offsetInCU: 0x6F2B, offset: 0xEC06, size: 0x8, addend: 0x0, symName: __ZNSt3__118__search_substringB8ue170006IcNS_11char_traitsIcEEEEPKT_S5_S5_S5_S5_, symObjAddr: 0x2B0C, symBinAddr: 0x100004D0C, symSize: 0x154 }
  - { offsetInCU: 0x6FC5, offset: 0xECA0, size: 0x8, addend: 0x0, symName: __ZNSt3__118__constexpr_memchrB8ue170006IKccEEPT_S3_T0_m, symObjAddr: 0x2D48, symBinAddr: 0x100004F48, symSize: 0xC0 }
  - { offsetInCU: 0x703D, offset: 0xED18, size: 0x8, addend: 0x0, symName: __ZNSt3__13maxB8ue170006ImEERKT_S3_S3_, symObjAddr: 0x364C, symBinAddr: 0x10000584C, symSize: 0x2C }
  - { offsetInCU: 0x7080, offset: 0xED5B, size: 0x8, addend: 0x0, symName: __ZNSt3__13minB8ue170006ImEERKT_S3_S3_, symObjAddr: 0x3678, symBinAddr: 0x100005878, symSize: 0x2C }
  - { offsetInCU: 0x72CE, offset: 0xEFA9, size: 0x8, addend: 0x0, symName: __ZNSt3__13minB8ue170006ImNS_6__lessIvvEEEERKT_S5_S5_T0_, symObjAddr: 0x3704, symBinAddr: 0x100005904, symSize: 0x54 }
  - { offsetInCU: 0x736F, offset: 0xF04A, size: 0x8, addend: 0x0, symName: __ZNSt3__120__throw_length_errorB8ue170006EPKc, symObjAddr: 0x37EC, symBinAddr: 0x1000059EC, symSize: 0x64 }
  - { offsetInCU: 0x739A, offset: 0xF075, size: 0x8, addend: 0x0, symName: __ZNSt3__13maxB8ue170006ImNS_6__lessIvvEEEERKT_S5_S5_T0_, symObjAddr: 0x38D0, symBinAddr: 0x100005AD0, symSize: 0x54 }
  - { offsetInCU: 0x73F4, offset: 0xF0CF, size: 0x8, addend: 0x0, symName: __ZNSt3__119__allocate_at_leastB8ue170006INS_9allocatorI5FacetEEEENS_19__allocation_resultINS_16allocator_traitsIT_E7pointerEEERS6_m, symObjAddr: 0x3A40, symBinAddr: 0x100005C40, symSize: 0x40 }
  - { offsetInCU: 0x7437, offset: 0xF112, size: 0x8, addend: 0x0, symName: __ZNSt3__142__uninitialized_allocator_move_if_noexceptB8ue170006INS_9allocatorI5FacetEENS_16reverse_iteratorIPS2_EES6_S2_vEET1_RT_T0_SA_S7_, symObjAddr: 0x3C28, symBinAddr: 0x100005E28, symSize: 0xE8 }
  - { offsetInCU: 0x74B5, offset: 0xF190, size: 0x8, addend: 0x0, symName: __ZNSt3__14swapB8ue170006IP5FacetEEvRT_S4_, symObjAddr: 0x3D5C, symBinAddr: 0x100005F5C, symSize: 0x3C }
  - { offsetInCU: 0x7507, offset: 0xF1E2, size: 0x8, addend: 0x0, symName: __ZNSt3__1neB8ue170006IP5FacetS2_EEbRKNS_16reverse_iteratorIT_EERKNS3_IT0_EE, symObjAddr: 0x3E60, symBinAddr: 0x100006060, symSize: 0x48 }
  - { offsetInCU: 0x757A, offset: 0xF255, size: 0x8, addend: 0x0, symName: __ZNSt3__114__construct_atB8ue170006I5FacetJS1_EPS1_EEPT_S4_DpOT0_, symObjAddr: 0x3EA8, symBinAddr: 0x1000060A8, symSize: 0x40 }
  - { offsetInCU: 0x75EC, offset: 0xF2C7, size: 0x8, addend: 0x0, symName: __ZNSt3__112__to_addressB8ue170006INS_16reverse_iteratorIP5FacetEEvEEu7__decayIDTclsr19__to_address_helperIT_EE6__callclsr3stdE7declvalIRKS5_EEEEES7_, symObjAddr: 0x3EE8, symBinAddr: 0x1000060E8, symSize: 0x24 }
  - { offsetInCU: 0x7622, offset: 0xF2FD, size: 0x8, addend: 0x0, symName: __ZNSt3__14moveB8ue170006INS_16reverse_iteratorIP5FacetEES4_EET0_T_S6_S5_, symObjAddr: 0x3F54, symBinAddr: 0x100006154, symSize: 0x78 }
  - { offsetInCU: 0x76A6, offset: 0xF381, size: 0x8, addend: 0x0, symName: __ZNSt3__16__moveB8ue170006INS_17_ClassicAlgPolicyENS_16reverse_iteratorIP5FacetEES5_S5_EENS_4pairIT0_T2_EES7_T1_S8_, symObjAddr: 0x403C, symBinAddr: 0x10000623C, symSize: 0x64 }
  - { offsetInCU: 0x7712, offset: 0xF3ED, size: 0x8, addend: 0x0, symName: __ZNSt3__123__dispatch_copy_or_moveB8ue170006INS_17_ClassicAlgPolicyENS_11__move_loopIS1_EENS_14__move_trivialENS_16reverse_iteratorIP5FacetEES8_S8_EENS_4pairIT2_T4_EESA_T3_SB_, symObjAddr: 0x40A0, symBinAddr: 0x1000062A0, symSize: 0x64 }
  - { offsetInCU: 0x7790, offset: 0xF46B, size: 0x8, addend: 0x0, symName: __ZNSt3__121__unwrap_and_dispatchB8ue170006INS_10__overloadINS_11__move_loopINS_17_ClassicAlgPolicyEEENS_14__move_trivialEEENS_16reverse_iteratorIP5FacetEESA_SA_Li0EEENS_4pairIT0_T2_EESC_T1_SD_, symObjAddr: 0x4104, symBinAddr: 0x100006304, symSize: 0x12C }
  - { offsetInCU: 0x7823, offset: 0xF4FE, size: 0x8, addend: 0x0, symName: __ZNSt3__114__unwrap_rangeB8ue170006INS_16reverse_iteratorIP5FacetEES4_EENS_4pairIT0_S6_EET_S8_, symObjAddr: 0x4230, symBinAddr: 0x100006430, symSize: 0x84 }
  - { offsetInCU: 0x7977, offset: 0xF652, size: 0x8, addend: 0x0, symName: __ZNSt3__113__unwrap_iterB8ue170006INS_16reverse_iteratorIP5FacetEENS_18__unwrap_iter_implIS4_Lb0EEELi0EEEDTclsrT0_8__unwrapclsr3stdE7declvalIT_EEEES8_, symObjAddr: 0x4350, symBinAddr: 0x100006550, symSize: 0x44 }
  - { offsetInCU: 0x79BC, offset: 0xF697, size: 0x8, addend: 0x0, symName: __ZNSt3__19make_pairB8ue170006INS_16reverse_iteratorIP5FacetEES4_EENS_4pairINS_18__unwrap_ref_decayIT_E4typeENS6_IT0_E4typeEEEOS7_OSA_, symObjAddr: 0x4394, symBinAddr: 0x100006594, symSize: 0x38 }
  - { offsetInCU: 0x7A0B, offset: 0xF6E6, size: 0x8, addend: 0x0, symName: __ZNSt3__114__rewrap_rangeB8ue170006INS_16reverse_iteratorIP5FacetEES4_EET_S5_T0_, symObjAddr: 0x43CC, symBinAddr: 0x1000065CC, symSize: 0x5C }
  - { offsetInCU: 0x7A57, offset: 0xF732, size: 0x8, addend: 0x0, symName: __ZNSt3__113__rewrap_iterB8ue170006INS_16reverse_iteratorIP5FacetEES4_NS_18__unwrap_iter_implIS4_Lb0EEEEET_S7_T0_, symObjAddr: 0x4428, symBinAddr: 0x100006628, symSize: 0x88 }
  - { offsetInCU: 0x7D57, offset: 0xFA32, size: 0x8, addend: 0x0, symName: __ZSt28__throw_bad_array_new_lengthB8ue170006v, symObjAddr: 0x215C, symBinAddr: 0x1000044B0, symSize: 0x34 }
  - { offsetInCU: 0x817B, offset: 0xFE56, size: 0x8, addend: 0x0, symName: __ZN7STLFile4maxZE, symObjAddr: 0x2F768, symBinAddr: 0x10000C008, symSize: 0x0 }
  - { offsetInCU: 0x81E8, offset: 0xFEC3, size: 0x8, addend: 0x0, symName: __ZNSt3__16vectorI5FacetNS_9allocatorIS1_EEE26__swap_out_circular_bufferERNS_14__split_bufferIS1_RS3_EE, symObjAddr: 0x3480, symBinAddr: 0x100005680, symSize: 0x110 }
  - { offsetInCU: 0x9FCE, offset: 0x11CA9, size: 0x8, addend: 0x0, symName: __ZN7STLFile11readSTLFileERKNSt3__112basic_stringIcNS0_11char_traitsIcEENS0_9allocatorIcEEEES8_, symObjAddr: 0x0, symBinAddr: 0x1000026D8, symSize: 0x5A8 }
  - { offsetInCU: 0xA092, offset: 0x11D6D, size: 0x8, addend: 0x0, symName: __ZNSt3__16vectorI5FacetNS_9allocatorIS1_EEEC1B8ue170006Ev, symObjAddr: 0x5A8, symBinAddr: 0x100002C80, symSize: 0x2C }
  - { offsetInCU: 0xA1C1, offset: 0x11E9C, size: 0x8, addend: 0x0, symName: __ZNSt3__114basic_ifstreamIcNS_11char_traitsIcEEEC1ERKNS_12basic_stringIcS2_NS_9allocatorIcEEEEj, symObjAddr: 0x694, symBinAddr: 0x100002D6C, symSize: 0x17C }
  - { offsetInCU: 0xA20A, offset: 0x11EE5, size: 0x8, addend: 0x0, symName: __ZNKSt3__114basic_ifstreamIcNS_11char_traitsIcEEE7is_openEv, symObjAddr: 0x810, symBinAddr: 0x100002EE8, symSize: 0x2C }
  - { offsetInCU: 0xA230, offset: 0x11F0B, size: 0x8, addend: 0x0, symName: __ZNSt3__112basic_stringIcNS_11char_traitsIcEENS_9allocatorIcEEEC1B8ue170006Ev, symObjAddr: 0x848, symBinAddr: 0x100002F14, symSize: 0x2C }
  - { offsetInCU: 0xA258, offset: 0x11F33, size: 0x8, addend: 0x0, symName: __ZNKSt3__19basic_iosIcNS_11char_traitsIcEEEcvPvB8ue170006Ev, symObjAddr: 0x8D0, symBinAddr: 0x100002F9C, symSize: 0x4C }
  - { offsetInCU: 0xA27C, offset: 0x11F57, size: 0x8, addend: 0x0, symName: __ZN6VectorC1Eddd, symObjAddr: 0x91C, symBinAddr: 0x100002FE8, symSize: 0x44 }
  - { offsetInCU: 0xA2CE, offset: 0x11FA9, size: 0x8, addend: 0x0, symName: __ZNKSt3__112basic_stringIcNS_11char_traitsIcEENS_9allocatorIcEEE4findB8ue170006EPKcm, symObjAddr: 0x960, symBinAddr: 0x10000302C, symSize: 0x74 }
  - { offsetInCU: 0xA312, offset: 0x11FED, size: 0x8, addend: 0x0, symName: __ZNKSt3__112basic_stringIcNS_11char_traitsIcEENS_9allocatorIcEEE6substrB8ue170006Emm, symObjAddr: 0x9D4, symBinAddr: 0x1000030A0, symSize: 0x68 }
  - { offsetInCU: 0xA3A4, offset: 0x1207F, size: 0x8, addend: 0x0, symName: __ZNSt3__119basic_istringstreamIcNS_11char_traitsIcEENS_9allocatorIcEEEC1B8ue170006ERKNS_12basic_stringIcS2_S4_EEj, symObjAddr: 0xA3C, symBinAddr: 0x100003108, symSize: 0x108 }
  - { offsetInCU: 0xA3EF, offset: 0x120CA, size: 0x8, addend: 0x0, symName: __ZNSt3__119basic_istringstreamIcNS_11char_traitsIcEENS_9allocatorIcEEED1Ev, symObjAddr: 0xB44, symBinAddr: 0x100003210, symSize: 0x70 }
  - { offsetInCU: 0xA41B, offset: 0x120F6, size: 0x8, addend: 0x0, symName: __ZN5FacetC1E6VectorS0_S0_, symObjAddr: 0xBB4, symBinAddr: 0x100003280, symSize: 0x90 }
  - { offsetInCU: 0xA46D, offset: 0x12148, size: 0x8, addend: 0x0, symName: __ZNSt3__16vectorI5FacetNS_9allocatorIS1_EEE9push_backB8ue170006ERKS1_, symObjAddr: 0xC44, symBinAddr: 0x100003310, symSize: 0x6C }
  - { offsetInCU: 0xA4A2, offset: 0x1217D, size: 0x8, addend: 0x0, symName: __ZNSt3__114basic_ifstreamIcNS_11char_traitsIcEEE5closeEv, symObjAddr: 0xCB0, symBinAddr: 0x10000337C, symSize: 0x58 }
  - { offsetInCU: 0xA4CD, offset: 0x121A8, size: 0x8, addend: 0x0, symName: __ZNSt3__114basic_ifstreamIcNS_11char_traitsIcEEED1Ev, symObjAddr: 0xD08, symBinAddr: 0x1000033D4, symSize: 0x70 }
  - { offsetInCU: 0xA4F9, offset: 0x121D4, size: 0x8, addend: 0x0, symName: __ZNSt3__16vectorI5FacetNS_9allocatorIS1_EEED1B8ue170006Ev, symObjAddr: 0xD78, symBinAddr: 0x100003444, symSize: 0x2C }
  - { offsetInCU: 0xA521, offset: 0x121FC, size: 0x8, addend: 0x0, symName: __ZN6VectorC2Eddd, symObjAddr: 0xDA4, symBinAddr: 0x100003470, symSize: 0x38 }
  - { offsetInCU: 0xA573, offset: 0x1224E, size: 0x8, addend: 0x0, symName: __ZNSt3__119basic_istringstreamIcNS_11char_traitsIcEENS_9allocatorIcEEED2Ev, symObjAddr: 0xDDC, symBinAddr: 0x1000034A8, symSize: 0x9C }
  - { offsetInCU: 0xA5AB, offset: 0x12286, size: 0x8, addend: 0x0, symName: __ZTv0_n24_NSt3__119basic_istringstreamIcNS_11char_traitsIcEENS_9allocatorIcEEED1Ev, symObjAddr: 0xE78, symBinAddr: 0x100003544, symSize: 0x28 }
  - { offsetInCU: 0xA5C7, offset: 0x122A2, size: 0x8, addend: 0x0, symName: __ZNSt3__115basic_stringbufIcNS_11char_traitsIcEENS_9allocatorIcEEED1Ev, symObjAddr: 0xEA0, symBinAddr: 0x10000356C, symSize: 0x2C }
  - { offsetInCU: 0xA5F3, offset: 0x122CE, size: 0x8, addend: 0x0, symName: __ZNSt3__115basic_stringbufIcNS_11char_traitsIcEENS_9allocatorIcEEED2Ev, symObjAddr: 0xECC, symBinAddr: 0x100003598, symSize: 0x78 }
  - { offsetInCU: 0xA61F, offset: 0x122FA, size: 0x8, addend: 0x0, symName: __ZN5FacetC2E6VectorS0_S0_, symObjAddr: 0xF44, symBinAddr: 0x100003610, symSize: 0xDC }
  - { offsetInCU: 0xA671, offset: 0x1234C, size: 0x8, addend: 0x0, symName: __ZNSt3__114basic_ifstreamIcNS_11char_traitsIcEEED2Ev, symObjAddr: 0x1020, symBinAddr: 0x1000036EC, symSize: 0x9C }
  - { offsetInCU: 0xA6A9, offset: 0x12384, size: 0x8, addend: 0x0, symName: __ZTv0_n24_NSt3__114basic_ifstreamIcNS_11char_traitsIcEEED1Ev, symObjAddr: 0x10BC, symBinAddr: 0x100003788, symSize: 0x28 }
  - { offsetInCU: 0xA6C0, offset: 0x1239B, size: 0x8, addend: 0x0, symName: __ZNSt3__16vectorI5FacetNS_9allocatorIS1_EEEC2B8ue170006Ev, symObjAddr: 0x10E4, symBinAddr: 0x1000037B0, symSize: 0x44 }
  - { offsetInCU: 0xA6F2, offset: 0x123CD, size: 0x8, addend: 0x0, symName: __ZNSt3__117__compressed_pairIP5FacetNS_9allocatorIS1_EEEC1B8ue170006IDnNS_18__default_init_tagEEEOT_OT0_, symObjAddr: 0x1128, symBinAddr: 0x1000037F4, symSize: 0x3C }
  - { offsetInCU: 0xA748, offset: 0x12423, size: 0x8, addend: 0x0, symName: __ZNSt3__117__compressed_pairIP5FacetNS_9allocatorIS1_EEEC2B8ue170006IDnNS_18__default_init_tagEEEOT_OT0_, symObjAddr: 0x1164, symBinAddr: 0x100003830, symSize: 0x40 }
  - { offsetInCU: 0xA79E, offset: 0x12479, size: 0x8, addend: 0x0, symName: __ZNSt3__122__compressed_pair_elemIP5FacetLi0ELb0EEC2B8ue170006IDnvEEOT_, symObjAddr: 0x11A4, symBinAddr: 0x100003870, symSize: 0x1C }
  - { offsetInCU: 0xA7DE, offset: 0x124B9, size: 0x8, addend: 0x0, symName: __ZNSt3__122__compressed_pair_elemINS_9allocatorI5FacetEELi1ELb1EEC2B8ue170006ENS_18__default_init_tagE, symObjAddr: 0x11C0, symBinAddr: 0x10000388C, symSize: 0x2C }
  - { offsetInCU: 0xA810, offset: 0x124EB, size: 0x8, addend: 0x0, symName: __ZNSt3__19allocatorI5FacetEC2B8ue170006Ev, symObjAddr: 0x11EC, symBinAddr: 0x1000038B8, symSize: 0x2C }
  - { offsetInCU: 0xA838, offset: 0x12513, size: 0x8, addend: 0x0, symName: __ZNSt3__116__non_trivial_ifILb1ENS_9allocatorI5FacetEEEC2B8ue170006Ev, symObjAddr: 0x1218, symBinAddr: 0x1000038E4, symSize: 0x14 }
  - { offsetInCU: 0xA860, offset: 0x1253B, size: 0x8, addend: 0x0, symName: __ZNSt3__16vectorI5FacetNS_9allocatorIS1_EEED2B8ue170006Ev, symObjAddr: 0x122C, symBinAddr: 0x1000038F8, symSize: 0x3C }
  - { offsetInCU: 0xA888, offset: 0x12563, size: 0x8, addend: 0x0, symName: __ZNSt3__16vectorI5FacetNS_9allocatorIS1_EEE16__destroy_vectorC1B8ue170006ERS4_, symObjAddr: 0x1268, symBinAddr: 0x100003934, symSize: 0x34 }
  - { offsetInCU: 0xA8BF, offset: 0x1259A, size: 0x8, addend: 0x0, symName: __ZNSt3__16vectorI5FacetNS_9allocatorIS1_EEE16__destroy_vectorclB8ue170006Ev, symObjAddr: 0x129C, symBinAddr: 0x100003968, symSize: 0x90 }
  - { offsetInCU: 0xA8E3, offset: 0x125BE, size: 0x8, addend: 0x0, symName: __ZNSt3__16vectorI5FacetNS_9allocatorIS1_EEE16__destroy_vectorC2B8ue170006ERS4_, symObjAddr: 0x132C, symBinAddr: 0x1000039F8, symSize: 0x20 }
  - { offsetInCU: 0xA91A, offset: 0x125F5, size: 0x8, addend: 0x0, symName: __ZNSt3__16vectorI5FacetNS_9allocatorIS1_EEE7__clearB8ue170006Ev, symObjAddr: 0x134C, symBinAddr: 0x100003A18, symSize: 0x28 }
  - { offsetInCU: 0xA93E, offset: 0x12619, size: 0x8, addend: 0x0, symName: __ZNKSt3__16vectorI5FacetNS_9allocatorIS1_EEE17__annotate_deleteB8ue170006Ev, symObjAddr: 0x1374, symBinAddr: 0x100003A40, symSize: 0xD4 }
  - { offsetInCU: 0xA962, offset: 0x1263D, size: 0x8, addend: 0x0, symName: __ZNSt3__116allocator_traitsINS_9allocatorI5FacetEEE10deallocateB8ue170006ERS3_PS2_m, symObjAddr: 0x1448, symBinAddr: 0x100003B14, symSize: 0x34 }
  - { offsetInCU: 0xA9A3, offset: 0x1267E, size: 0x8, addend: 0x0, symName: __ZNSt3__16vectorI5FacetNS_9allocatorIS1_EEE7__allocB8ue170006Ev, symObjAddr: 0x147C, symBinAddr: 0x100003B48, symSize: 0x28 }
  - { offsetInCU: 0xA9C7, offset: 0x126A2, size: 0x8, addend: 0x0, symName: __ZNKSt3__16vectorI5FacetNS_9allocatorIS1_EEE8capacityB8ue170006Ev, symObjAddr: 0x14A4, symBinAddr: 0x100003B70, symSize: 0x40 }
  - { offsetInCU: 0xA9EB, offset: 0x126C6, size: 0x8, addend: 0x0, symName: __ZNSt3__16vectorI5FacetNS_9allocatorIS1_EEE22__base_destruct_at_endB8ue170006EPS1_, symObjAddr: 0x14E4, symBinAddr: 0x100003BB0, symSize: 0xA0 }
  - { offsetInCU: 0xAA2D, offset: 0x12708, size: 0x8, addend: 0x0, symName: __ZNSt3__116allocator_traitsINS_9allocatorI5FacetEEE7destroyB8ue170006IS2_vEEvRS3_PT_, symObjAddr: 0x1584, symBinAddr: 0x100003C50, symSize: 0x2C }
  - { offsetInCU: 0xAA69, offset: 0x12744, size: 0x8, addend: 0x0, symName: __ZNSt3__19allocatorI5FacetE7destroyB8ue170006EPS1_, symObjAddr: 0x15C4, symBinAddr: 0x100003C90, symSize: 0x14 }
  - { offsetInCU: 0xAA9B, offset: 0x12776, size: 0x8, addend: 0x0, symName: __ZNKSt3__16vectorI5FacetNS_9allocatorIS1_EEE31__annotate_contiguous_containerB8ue170006EPKvS6_S6_S6_, symObjAddr: 0x15D8, symBinAddr: 0x100003CA4, symSize: 0x20 }
  - { offsetInCU: 0xAAEF, offset: 0x127CA, size: 0x8, addend: 0x0, symName: __ZNKSt3__16vectorI5FacetNS_9allocatorIS1_EEE4dataB8ue170006Ev, symObjAddr: 0x15F8, symBinAddr: 0x100003CC4, symSize: 0x28 }
  - { offsetInCU: 0xAB13, offset: 0x127EE, size: 0x8, addend: 0x0, symName: __ZNKSt3__16vectorI5FacetNS_9allocatorIS1_EEE4sizeB8ue170006Ev, symObjAddr: 0x1620, symBinAddr: 0x100003CEC, symSize: 0x28 }
  - { offsetInCU: 0xAB37, offset: 0x12812, size: 0x8, addend: 0x0, symName: __ZNSt3__19allocatorI5FacetE10deallocateB8ue170006EPS1_m, symObjAddr: 0x1648, symBinAddr: 0x100003D14, symSize: 0x74 }
  - { offsetInCU: 0xAB77, offset: 0x12852, size: 0x8, addend: 0x0, symName: __ZNSt3__117__compressed_pairIP5FacetNS_9allocatorIS1_EEE6secondB8ue170006Ev, symObjAddr: 0x1744, symBinAddr: 0x100003E04, symSize: 0x24 }
  - { offsetInCU: 0xAB9B, offset: 0x12876, size: 0x8, addend: 0x0, symName: __ZNSt3__122__compressed_pair_elemINS_9allocatorI5FacetEELi1ELb1EE5__getB8ue170006Ev, symObjAddr: 0x1768, symBinAddr: 0x100003E28, symSize: 0x14 }
  - { offsetInCU: 0xABBF, offset: 0x1289A, size: 0x8, addend: 0x0, symName: __ZNKSt3__16vectorI5FacetNS_9allocatorIS1_EEE9__end_capB8ue170006Ev, symObjAddr: 0x177C, symBinAddr: 0x100003E3C, symSize: 0x28 }
  - { offsetInCU: 0xABE3, offset: 0x128BE, size: 0x8, addend: 0x0, symName: __ZNKSt3__117__compressed_pairIP5FacetNS_9allocatorIS1_EEE5firstB8ue170006Ev, symObjAddr: 0x17A4, symBinAddr: 0x100003E64, symSize: 0x24 }
  - { offsetInCU: 0xAC07, offset: 0x128E2, size: 0x8, addend: 0x0, symName: __ZNKSt3__122__compressed_pair_elemIP5FacetLi0ELb0EE5__getB8ue170006Ev, symObjAddr: 0x17C8, symBinAddr: 0x100003E88, symSize: 0x14 }
  - { offsetInCU: 0xAC2B, offset: 0x12906, size: 0x8, addend: 0x0, symName: __ZNKSt3__112basic_stringIcNS_11char_traitsIcEENS_9allocatorIcEEE4sizeB8ue170006Ev, symObjAddr: 0x1824, symBinAddr: 0x100003E9C, symSize: 0x54 }
  - { offsetInCU: 0xAC4F, offset: 0x1292A, size: 0x8, addend: 0x0, symName: __ZNKSt3__112basic_stringIcNS_11char_traitsIcEENS_9allocatorIcEEE15__get_long_sizeB8ue170006Ev, symObjAddr: 0x1910, symBinAddr: 0x100003EF0, symSize: 0x28 }
  - { offsetInCU: 0xAC73, offset: 0x1294E, size: 0x8, addend: 0x0, symName: __ZNKSt3__112basic_stringIcNS_11char_traitsIcEENS_9allocatorIcEEE16__get_short_sizeB8ue170006Ev, symObjAddr: 0x1938, symBinAddr: 0x100003F18, symSize: 0x34 }
  - { offsetInCU: 0xAC97, offset: 0x12972, size: 0x8, addend: 0x0, symName: __ZNSt3__19basic_iosIcNS_11char_traitsIcEEEC2B8ue170006Ev, symObjAddr: 0x19A4, symBinAddr: 0x100003F4C, symSize: 0x44 }
  - { offsetInCU: 0xACBF, offset: 0x1299A, size: 0x8, addend: 0x0, symName: __ZNSt3__113basic_istreamIcNS_11char_traitsIcEEEC2B8ue170006EPNS_15basic_streambufIcS2_EE, symObjAddr: 0x19E8, symBinAddr: 0x100003F90, symSize: 0x64 }
  - { offsetInCU: 0xAD01, offset: 0x129DC, size: 0x8, addend: 0x0, symName: __ZNSt3__113basic_filebufIcNS_11char_traitsIcEEE4openERKNS_12basic_stringIcS2_NS_9allocatorIcEEEEj, symObjAddr: 0x1A4C, symBinAddr: 0x100003FF4, symSize: 0x44 }
  - { offsetInCU: 0xAD43, offset: 0x12A1E, size: 0x8, addend: 0x0, symName: __ZNSt3__18ios_baseC2B8ue170006Ev, symObjAddr: 0x1ABC, symBinAddr: 0x100004038, symSize: 0x24 }
  - { offsetInCU: 0xAD6B, offset: 0x12A46, size: 0x8, addend: 0x0, symName: __ZNSt3__19basic_iosIcNS_11char_traitsIcEEE4initB8ue170006EPNS_15basic_streambufIcS2_EE, symObjAddr: 0x1AE0, symBinAddr: 0x10000405C, symSize: 0x44 }
  - { offsetInCU: 0xADA0, offset: 0x12A7B, size: 0x8, addend: 0x0, symName: __ZNKSt3__112basic_stringIcNS_11char_traitsIcEENS_9allocatorIcEEE5c_strB8ue170006Ev, symObjAddr: 0x1B2C, symBinAddr: 0x1000040A0, symSize: 0x24 }
  - { offsetInCU: 0xADC4, offset: 0x12A9F, size: 0x8, addend: 0x0, symName: __ZNKSt3__113basic_filebufIcNS_11char_traitsIcEEE7is_openEv, symObjAddr: 0x1C78, symBinAddr: 0x1000040C4, symSize: 0x24 }
  - { offsetInCU: 0xADEA, offset: 0x12AC5, size: 0x8, addend: 0x0, symName: __ZNSt3__112basic_stringIcNS_11char_traitsIcEENS_9allocatorIcEEEC2B8ue170006Ev, symObjAddr: 0x1C9C, symBinAddr: 0x1000040E8, symSize: 0x3C }
  - { offsetInCU: 0xAE12, offset: 0x12AED, size: 0x8, addend: 0x0, symName: __ZNSt3__112basic_stringIcNS_11char_traitsIcEENS_9allocatorIcEEE14__default_initB8ue170006Ev, symObjAddr: 0x1D14, symBinAddr: 0x100004124, symSize: 0xB0 }
  - { offsetInCU: 0xAE63, offset: 0x12B3E, size: 0x8, addend: 0x0, symName: __ZNSt3__117__compressed_pairINS_12basic_stringIcNS_11char_traitsIcEENS_9allocatorIcEEE5__repES5_E5firstB8ue170006Ev, symObjAddr: 0x1E80, symBinAddr: 0x1000041D4, symSize: 0x24 }
  - { offsetInCU: 0xAE87, offset: 0x12B62, size: 0x8, addend: 0x0, symName: __ZNSt3__112basic_stringIcNS_11char_traitsIcEENS_9allocatorIcEEE11__recommendB8ue170006Em, symObjAddr: 0x1EA4, symBinAddr: 0x1000041F8, symSize: 0x9C }
  - { offsetInCU: 0xAEB9, offset: 0x12B94, size: 0x8, addend: 0x0, symName: __ZNSt3__116allocator_traitsINS_9allocatorIcEEE8allocateB8ue170006ERS2_m, symObjAddr: 0x1F40, symBinAddr: 0x100004294, symSize: 0x2C }
  - { offsetInCU: 0xAEEB, offset: 0x12BC6, size: 0x8, addend: 0x0, symName: __ZNSt3__112basic_stringIcNS_11char_traitsIcEENS_9allocatorIcEEE7__allocB8ue170006Ev, symObjAddr: 0x1F6C, symBinAddr: 0x1000042C0, symSize: 0x24 }
  - { offsetInCU: 0xAF0F, offset: 0x12BEA, size: 0x8, addend: 0x0, symName: __ZNSt3__112basic_stringIcNS_11char_traitsIcEENS_9allocatorIcEEE16__begin_lifetimeB8ue170006EPcm, symObjAddr: 0x1F90, symBinAddr: 0x1000042E4, symSize: 0x14 }
  - { offsetInCU: 0xAF41, offset: 0x12C1C, size: 0x8, addend: 0x0, symName: __ZNSt3__112basic_stringIcNS_11char_traitsIcEENS_9allocatorIcEEE18__set_long_pointerB8ue170006EPc, symObjAddr: 0x1FA4, symBinAddr: 0x1000042F8, symSize: 0x38 }
  - { offsetInCU: 0xAF74, offset: 0x12C4F, size: 0x8, addend: 0x0, symName: __ZNSt3__112basic_stringIcNS_11char_traitsIcEENS_9allocatorIcEEE14__set_long_capB8ue170006Em, symObjAddr: 0x1FDC, symBinAddr: 0x100004330, symSize: 0x70 }
  - { offsetInCU: 0xAFA7, offset: 0x12C82, size: 0x8, addend: 0x0, symName: __ZNSt3__112basic_stringIcNS_11char_traitsIcEENS_9allocatorIcEEE15__set_long_sizeB8ue170006Em, symObjAddr: 0x204C, symBinAddr: 0x1000043A0, symSize: 0x38 }
  - { offsetInCU: 0xAFDA, offset: 0x12CB5, size: 0x8, addend: 0x0, symName: __ZNSt3__122__compressed_pair_elemINS_12basic_stringIcNS_11char_traitsIcEENS_9allocatorIcEEE5__repELi0ELb0EE5__getB8ue170006Ev, symObjAddr: 0x2084, symBinAddr: 0x1000043D8, symSize: 0x14 }
  - { offsetInCU: 0xAFFE, offset: 0x12CD9, size: 0x8, addend: 0x0, symName: __ZNSt3__112basic_stringIcNS_11char_traitsIcEENS_9allocatorIcEEE10__align_itB8ue170006ILm16EEEmm, symObjAddr: 0x2098, symBinAddr: 0x1000043EC, symSize: 0x1C }
  - { offsetInCU: 0xB02B, offset: 0x12D06, size: 0x8, addend: 0x0, symName: __ZNSt3__19allocatorIcE8allocateB8ue170006Em, symObjAddr: 0x20B4, symBinAddr: 0x100004408, symSize: 0x84 }
  - { offsetInCU: 0xB067, offset: 0x12D42, size: 0x8, addend: 0x0, symName: __ZNSt3__116allocator_traitsINS_9allocatorIcEEE8max_sizeB8ue170006IS2_vEEmRKS2_, symObjAddr: 0x2138, symBinAddr: 0x10000448C, symSize: 0x24 }
  - { offsetInCU: 0xB094, offset: 0x12D6F, size: 0x8, addend: 0x0, symName: __ZNKSt3__19allocatorIcE8max_sizeB8ue170006Ev, symObjAddr: 0x21B8, symBinAddr: 0x10000450C, symSize: 0x14 }
  - { offsetInCU: 0xB0B8, offset: 0x12D93, size: 0x8, addend: 0x0, symName: __ZNSt3__117__compressed_pairINS_12basic_stringIcNS_11char_traitsIcEENS_9allocatorIcEEE5__repES5_E6secondB8ue170006Ev, symObjAddr: 0x21F0, symBinAddr: 0x100004544, symSize: 0x24 }
  - { offsetInCU: 0xB0DC, offset: 0x12DB7, size: 0x8, addend: 0x0, symName: __ZNSt3__122__compressed_pair_elemINS_9allocatorIcEELi1ELb1EE5__getB8ue170006Ev, symObjAddr: 0x2214, symBinAddr: 0x100004568, symSize: 0x14 }
  - { offsetInCU: 0xB11E, offset: 0x12DF9, size: 0x8, addend: 0x0, symName: __ZNKSt3__113basic_istreamIcNS_11char_traitsIcEEE6sentrycvbB8ue170006Ev, symObjAddr: 0x24EC, symBinAddr: 0x1000047B4, symSize: 0x1C }
  - { offsetInCU: 0xB142, offset: 0x12E1D, size: 0x8, addend: 0x0, symName: __ZNSt3__112basic_stringIcNS_11char_traitsIcEENS_9allocatorIcEEE5clearB8ue170006Ev, symObjAddr: 0x2508, symBinAddr: 0x1000047D0, symSize: 0x78 }
  - { offsetInCU: 0xB168, offset: 0x12E43, size: 0x8, addend: 0x0, symName: __ZNSt3__115basic_streambufIcNS_11char_traitsIcEEE6sbumpcB8ue170006Ev, symObjAddr: 0x25A4, symBinAddr: 0x100004848, symSize: 0x78 }
  - { offsetInCU: 0xB18C, offset: 0x12E67, size: 0x8, addend: 0x0, symName: __ZNSt3__111char_traitsIcE12to_char_typeB8ue170006Ei, symObjAddr: 0x2644, symBinAddr: 0x1000048C0, symSize: 0x18 }
  - { offsetInCU: 0xB1AE, offset: 0x12E89, size: 0x8, addend: 0x0, symName: __ZNSt3__111char_traitsIcE2eqEcc, symObjAddr: 0x265C, symBinAddr: 0x1000048D8, symSize: 0x28 }
  - { offsetInCU: 0xB1DE, offset: 0x12EB9, size: 0x8, addend: 0x0, symName: __ZNKSt3__112basic_stringIcNS_11char_traitsIcEENS_9allocatorIcEEE8max_sizeB8ue170006Ev, symObjAddr: 0x2684, symBinAddr: 0x100004900, symSize: 0xAC }
  - { offsetInCU: 0xB22F, offset: 0x12F0A, size: 0x8, addend: 0x0, symName: __ZNSt3__18ios_base18__setstate_nothrowB8ue170006Ej, symObjAddr: 0x2730, symBinAddr: 0x1000049AC, symSize: 0x64 }
  - { offsetInCU: 0xB262, offset: 0x12F3D, size: 0x8, addend: 0x0, symName: __ZNKSt3__19basic_iosIcNS_11char_traitsIcEEE10exceptionsB8ue170006Ev, symObjAddr: 0x2794, symBinAddr: 0x100004A10, symSize: 0x24 }
  - { offsetInCU: 0xB286, offset: 0x12F61, size: 0x8, addend: 0x0, symName: __ZNSt3__111char_traitsIcE6assignB8ue170006ERcRKc, symObjAddr: 0x27B8, symBinAddr: 0x100004A34, symSize: 0x24 }
  - { offsetInCU: 0xB2B6, offset: 0x12F91, size: 0x8, addend: 0x0, symName: __ZNSt3__112basic_stringIcNS_11char_traitsIcEENS_9allocatorIcEEE18__get_long_pointerB8ue170006Ev, symObjAddr: 0x27DC, symBinAddr: 0x100004A58, symSize: 0x28 }
  - { offsetInCU: 0xB2DA, offset: 0x12FB5, size: 0x8, addend: 0x0, symName: __ZNSt3__112basic_stringIcNS_11char_traitsIcEENS_9allocatorIcEEE19__get_short_pointerB8ue170006Ev, symObjAddr: 0x2804, symBinAddr: 0x100004A80, symSize: 0x28 }
  - { offsetInCU: 0xB2FE, offset: 0x12FD9, size: 0x8, addend: 0x0, symName: __ZNSt3__112basic_stringIcNS_11char_traitsIcEENS_9allocatorIcEEE16__set_short_sizeB8ue170006Em, symObjAddr: 0x282C, symBinAddr: 0x100004AA8, symSize: 0x78 }
  - { offsetInCU: 0xB331, offset: 0x1300C, size: 0x8, addend: 0x0, symName: __ZNSt3__114pointer_traitsIPcE10pointer_toB8ue170006ERc, symObjAddr: 0x28A4, symBinAddr: 0x100004B20, symSize: 0x14 }
  - { offsetInCU: 0xB353, offset: 0x1302E, size: 0x8, addend: 0x0, symName: __ZNSt3__111char_traitsIcE11to_int_typeB8ue170006Ec, symObjAddr: 0x28D0, symBinAddr: 0x100004B34, symSize: 0x14 }
  - { offsetInCU: 0xB376, offset: 0x13051, size: 0x8, addend: 0x0, symName: __ZNKSt3__112basic_stringIcNS_11char_traitsIcEENS_9allocatorIcEEE7__allocB8ue170006Ev, symObjAddr: 0x28E4, symBinAddr: 0x100004B48, symSize: 0x24 }
  - { offsetInCU: 0xB39A, offset: 0x13075, size: 0x8, addend: 0x0, symName: __ZNSt3__114numeric_limitsImE3maxB8ue170006Ev, symObjAddr: 0x2908, symBinAddr: 0x100004B6C, symSize: 0x14 }
  - { offsetInCU: 0xB3AE, offset: 0x13089, size: 0x8, addend: 0x0, symName: __ZNKSt3__117__compressed_pairINS_12basic_stringIcNS_11char_traitsIcEENS_9allocatorIcEEE5__repES5_E6secondB8ue170006Ev, symObjAddr: 0x291C, symBinAddr: 0x100004B80, symSize: 0x24 }
  - { offsetInCU: 0xB3D2, offset: 0x130AD, size: 0x8, addend: 0x0, symName: __ZNKSt3__122__compressed_pair_elemINS_9allocatorIcEELi1ELb1EE5__getB8ue170006Ev, symObjAddr: 0x2940, symBinAddr: 0x100004BA4, symSize: 0x14 }
  - { offsetInCU: 0xB3F6, offset: 0x130D1, size: 0x8, addend: 0x0, symName: __ZNSt3__123__libcpp_numeric_limitsImLb1EE3maxB8ue170006Ev, symObjAddr: 0x2954, symBinAddr: 0x100004BB8, symSize: 0x8 }
  - { offsetInCU: 0xB409, offset: 0x130E4, size: 0x8, addend: 0x0, symName: __ZNKSt3__18ios_base10exceptionsB8ue170006Ev, symObjAddr: 0x295C, symBinAddr: 0x100004BC0, symSize: 0x18 }
  - { offsetInCU: 0xB42F, offset: 0x1310A, size: 0x8, addend: 0x0, symName: __ZNKSt3__19basic_iosIcNS_11char_traitsIcEEE4failB8ue170006Ev, symObjAddr: 0x29D8, symBinAddr: 0x100004BD8, symSize: 0x28 }
  - { offsetInCU: 0xB453, offset: 0x1312E, size: 0x8, addend: 0x0, symName: __ZNKSt3__18ios_base4failB8ue170006Ev, symObjAddr: 0x2A00, symBinAddr: 0x100004C00, symSize: 0x28 }
  - { offsetInCU: 0xB479, offset: 0x13154, size: 0x8, addend: 0x0, symName: __ZNSt3__111char_traitsIcE4findB8ue170006EPKcmRS2_, symObjAddr: 0x2C60, symBinAddr: 0x100004E60, symSize: 0x84 }
  - { offsetInCU: 0xB4B7, offset: 0x13192, size: 0x8, addend: 0x0, symName: __ZNSt3__111char_traitsIcE7compareB8ue170006EPKcS3_m, symObjAddr: 0x2CE4, symBinAddr: 0x100004EE4, symSize: 0x64 }
  - { offsetInCU: 0xB4F5, offset: 0x131D0, size: 0x8, addend: 0x0, symName: __ZNSt3__19allocatorIcEC1B8ue170006Ev, symObjAddr: 0x2E08, symBinAddr: 0x100005008, symSize: 0x2C }
  - { offsetInCU: 0xB51D, offset: 0x131F8, size: 0x8, addend: 0x0, symName: __ZNSt3__115basic_stringbufIcNS_11char_traitsIcEENS_9allocatorIcEEEC1B8ue170006ERKNS_12basic_stringIcS2_S4_EEj, symObjAddr: 0x2E34, symBinAddr: 0x100005034, symSize: 0x3C }
  - { offsetInCU: 0xB563, offset: 0x1323E, size: 0x8, addend: 0x0, symName: __ZNSt3__115basic_stringbufIcNS_11char_traitsIcEENS_9allocatorIcEEEC2B8ue170006ERKNS_12basic_stringIcS2_S4_EEj, symObjAddr: 0x2E70, symBinAddr: 0x100005070, symSize: 0xD8 }
  - { offsetInCU: 0xB5A9, offset: 0x13284, size: 0x8, addend: 0x0, symName: __ZNKSt3__112basic_stringIcNS_11char_traitsIcEENS_9allocatorIcEEE13get_allocatorB8ue170006Ev, symObjAddr: 0x2F48, symBinAddr: 0x100005148, symSize: 0x24 }
  - { offsetInCU: 0xB5CD, offset: 0x132A8, size: 0x8, addend: 0x0, symName: __ZNSt3__112basic_stringIcNS_11char_traitsIcEENS_9allocatorIcEEEC1B8ue170006ERKS4_, symObjAddr: 0x2F6C, symBinAddr: 0x10000516C, symSize: 0x34 }
  - { offsetInCU: 0xB604, offset: 0x132DF, size: 0x8, addend: 0x0, symName: __ZNSt3__112basic_stringIcNS_11char_traitsIcEENS_9allocatorIcEEEC2B8ue170006ERKS4_, symObjAddr: 0x2FA0, symBinAddr: 0x1000051A0, symSize: 0x40 }
  - { offsetInCU: 0xB63B, offset: 0x13316, size: 0x8, addend: 0x0, symName: __ZNSt3__117__compressed_pairINS_12basic_stringIcNS_11char_traitsIcEENS_9allocatorIcEEE5__repES5_EC1B8ue170006INS_18__default_init_tagERKS5_EEOT_OT0_, symObjAddr: 0x2FE0, symBinAddr: 0x1000051E0, symSize: 0x3C }
  - { offsetInCU: 0xB691, offset: 0x1336C, size: 0x8, addend: 0x0, symName: __ZNSt3__117__compressed_pairINS_12basic_stringIcNS_11char_traitsIcEENS_9allocatorIcEEE5__repES5_EC2B8ue170006INS_18__default_init_tagERKS5_EEOT_OT0_, symObjAddr: 0x301C, symBinAddr: 0x10000521C, symSize: 0x40 }
  - { offsetInCU: 0xB6E7, offset: 0x133C2, size: 0x8, addend: 0x0, symName: __ZNSt3__122__compressed_pair_elemINS_9allocatorIcEELi1ELb1EEC2B8ue170006IRKS2_vEEOT_, symObjAddr: 0x305C, symBinAddr: 0x10000525C, symSize: 0x18 }
  - { offsetInCU: 0xB727, offset: 0x13402, size: 0x8, addend: 0x0, symName: __ZNSt3__16vectorI5FacetNS_9allocatorIS1_EEE9__end_capB8ue170006Ev, symObjAddr: 0x3074, symBinAddr: 0x100005274, symSize: 0x28 }
  - { offsetInCU: 0xB74B, offset: 0x13426, size: 0x8, addend: 0x0, symName: __ZNSt3__16vectorI5FacetNS_9allocatorIS1_EEE22__construct_one_at_endB8ue170006IJRKS1_EEEvDpOT_, symObjAddr: 0x309C, symBinAddr: 0x10000529C, symSize: 0x98 }
  - { offsetInCU: 0xB798, offset: 0x13473, size: 0x8, addend: 0x0, symName: __ZNSt3__16vectorI5FacetNS_9allocatorIS1_EEE21__push_back_slow_pathIRKS1_EEvOT_, symObjAddr: 0x3134, symBinAddr: 0x100005334, symSize: 0xE0 }
  - { offsetInCU: 0xB7F4, offset: 0x134CF, size: 0x8, addend: 0x0, symName: __ZNSt3__117__compressed_pairIP5FacetNS_9allocatorIS1_EEE5firstB8ue170006Ev, symObjAddr: 0x3214, symBinAddr: 0x100005414, symSize: 0x24 }
  - { offsetInCU: 0xB818, offset: 0x134F3, size: 0x8, addend: 0x0, symName: __ZNSt3__122__compressed_pair_elemIP5FacetLi0ELb0EE5__getB8ue170006Ev, symObjAddr: 0x3238, symBinAddr: 0x100005438, symSize: 0x14 }
  - { offsetInCU: 0xB855, offset: 0x13530, size: 0x8, addend: 0x0, symName: __ZNSt3__16vectorI5FacetNS_9allocatorIS1_EEE21_ConstructTransactionC1B8ue170006ERS4_m, symObjAddr: 0x324C, symBinAddr: 0x10000544C, symSize: 0x3C }
  - { offsetInCU: 0xB89B, offset: 0x13576, size: 0x8, addend: 0x0, symName: __ZNSt3__116allocator_traitsINS_9allocatorI5FacetEEE9constructB8ue170006IS2_JRKS2_EvEEvRS3_PT_DpOT0_, symObjAddr: 0x3288, symBinAddr: 0x100005488, symSize: 0x34 }
  - { offsetInCU: 0xB8F1, offset: 0x135CC, size: 0x8, addend: 0x0, symName: __ZNSt3__16vectorI5FacetNS_9allocatorIS1_EEE21_ConstructTransactionD1B8ue170006Ev, symObjAddr: 0x32BC, symBinAddr: 0x1000054BC, symSize: 0x2C }
  - { offsetInCU: 0xB919, offset: 0x135F4, size: 0x8, addend: 0x0, symName: __ZNSt3__16vectorI5FacetNS_9allocatorIS1_EEE21_ConstructTransactionC2B8ue170006ERS4_m, symObjAddr: 0x32E8, symBinAddr: 0x1000054E8, symSize: 0x4C }
  - { offsetInCU: 0xB95F, offset: 0x1363A, size: 0x8, addend: 0x0, symName: __ZNSt3__19allocatorI5FacetE9constructB8ue170006IS1_JRKS1_EEEvPT_DpOT0_, symObjAddr: 0x3334, symBinAddr: 0x100005534, symSize: 0x34 }
  - { offsetInCU: 0xB9B3, offset: 0x1368E, size: 0x8, addend: 0x0, symName: __ZNSt3__16vectorI5FacetNS_9allocatorIS1_EEE21_ConstructTransactionD2B8ue170006Ev, symObjAddr: 0x3368, symBinAddr: 0x100005568, symSize: 0x20 }
  - { offsetInCU: 0xB9DB, offset: 0x136B6, size: 0x8, addend: 0x0, symName: __ZNKSt3__16vectorI5FacetNS_9allocatorIS1_EEE11__recommendB8ue170006Em, symObjAddr: 0x3388, symBinAddr: 0x100005588, symSize: 0xB4 }
  - { offsetInCU: 0xBA2E, offset: 0x13709, size: 0x8, addend: 0x0, symName: __ZNSt3__114__split_bufferI5FacetRNS_9allocatorIS1_EEEC1EmmS4_, symObjAddr: 0x343C, symBinAddr: 0x10000563C, symSize: 0x44 }
  - { offsetInCU: 0xBA83, offset: 0x1375E, size: 0x8, addend: 0x0, symName: __ZNSt3__114__split_bufferI5FacetRNS_9allocatorIS1_EEED1Ev, symObjAddr: 0x3590, symBinAddr: 0x100005790, symSize: 0x2C }
  - { offsetInCU: 0xBAAE, offset: 0x13789, size: 0x8, addend: 0x0, symName: __ZNKSt3__16vectorI5FacetNS_9allocatorIS1_EEE8max_sizeEv, symObjAddr: 0x35BC, symBinAddr: 0x1000057BC, symSize: 0x74 }
  - { offsetInCU: 0xBAD4, offset: 0x137AF, size: 0x8, addend: 0x0, symName: __ZNKSt3__16vectorI5FacetNS_9allocatorIS1_EEE20__throw_length_errorB8ue170006Ev, symObjAddr: 0x3630, symBinAddr: 0x100005830, symSize: 0x1C }
  - { offsetInCU: 0xBB02, offset: 0x137DD, size: 0x8, addend: 0x0, symName: __ZNSt3__116allocator_traitsINS_9allocatorI5FacetEEE8max_sizeB8ue170006IS3_vEEmRKS3_, symObjAddr: 0x36A4, symBinAddr: 0x1000058A4, symSize: 0x24 }
  - { offsetInCU: 0xBB2F, offset: 0x1380A, size: 0x8, addend: 0x0, symName: __ZNKSt3__16vectorI5FacetNS_9allocatorIS1_EEE7__allocB8ue170006Ev, symObjAddr: 0x36C8, symBinAddr: 0x1000058C8, symSize: 0x28 }
  - { offsetInCU: 0xBB53, offset: 0x1382E, size: 0x8, addend: 0x0, symName: __ZNSt3__114numeric_limitsIlE3maxB8ue170006Ev, symObjAddr: 0x36F0, symBinAddr: 0x1000058F0, symSize: 0x14 }
  - { offsetInCU: 0xBB7B, offset: 0x13856, size: 0x8, addend: 0x0, symName: __ZNKSt3__16__lessIvvEclB8ue170006ImmEEbRKT_RKT0_, symObjAddr: 0x3758, symBinAddr: 0x100005958, symSize: 0x34 }
  - { offsetInCU: 0xBBCD, offset: 0x138A8, size: 0x8, addend: 0x0, symName: __ZNKSt3__19allocatorI5FacetE8max_sizeB8ue170006Ev, symObjAddr: 0x378C, symBinAddr: 0x10000598C, symSize: 0x20 }
  - { offsetInCU: 0xBBF1, offset: 0x138CC, size: 0x8, addend: 0x0, symName: __ZNKSt3__117__compressed_pairIP5FacetNS_9allocatorIS1_EEE6secondB8ue170006Ev, symObjAddr: 0x37AC, symBinAddr: 0x1000059AC, symSize: 0x24 }
  - { offsetInCU: 0xBC15, offset: 0x138F0, size: 0x8, addend: 0x0, symName: __ZNKSt3__122__compressed_pair_elemINS_9allocatorI5FacetEELi1ELb1EE5__getB8ue170006Ev, symObjAddr: 0x37D0, symBinAddr: 0x1000059D0, symSize: 0x14 }
  - { offsetInCU: 0xBC39, offset: 0x13914, size: 0x8, addend: 0x0, symName: __ZNSt3__123__libcpp_numeric_limitsIlLb1EE3maxB8ue170006Ev, symObjAddr: 0x37E4, symBinAddr: 0x1000059E4, symSize: 0x8 }
  - { offsetInCU: 0xBC4C, offset: 0x13927, size: 0x8, addend: 0x0, symName: __ZNSt12length_errorC1B8ue170006EPKc, symObjAddr: 0x3850, symBinAddr: 0x100005A50, symSize: 0x34 }
  - { offsetInCU: 0xBC82, offset: 0x1395D, size: 0x8, addend: 0x0, symName: __ZNSt12length_errorC2B8ue170006EPKc, symObjAddr: 0x3884, symBinAddr: 0x100005A84, symSize: 0x4C }
  - { offsetInCU: 0xBCB8, offset: 0x13993, size: 0x8, addend: 0x0, symName: __ZNSt3__114__split_bufferI5FacetRNS_9allocatorIS1_EEEC2EmmS4_, symObjAddr: 0x3924, symBinAddr: 0x100005B24, symSize: 0xE0 }
  - { offsetInCU: 0xBD2B, offset: 0x13A06, size: 0x8, addend: 0x0, symName: __ZNSt3__117__compressed_pairIP5FacetRNS_9allocatorIS1_EEEC1B8ue170006IDnS5_EEOT_OT0_, symObjAddr: 0x3A04, symBinAddr: 0x100005C04, symSize: 0x3C }
  - { offsetInCU: 0xBD81, offset: 0x13A5C, size: 0x8, addend: 0x0, symName: __ZNSt3__114__split_bufferI5FacetRNS_9allocatorIS1_EEE7__allocB8ue170006Ev, symObjAddr: 0x3A80, symBinAddr: 0x100005C80, symSize: 0x28 }
  - { offsetInCU: 0xBDA5, offset: 0x13A80, size: 0x8, addend: 0x0, symName: __ZNSt3__114__split_bufferI5FacetRNS_9allocatorIS1_EEE9__end_capB8ue170006Ev, symObjAddr: 0x3AA8, symBinAddr: 0x100005CA8, symSize: 0x28 }
  - { offsetInCU: 0xBDC9, offset: 0x13AA4, size: 0x8, addend: 0x0, symName: __ZNSt3__117__compressed_pairIP5FacetRNS_9allocatorIS1_EEEC2B8ue170006IDnS5_EEOT_OT0_, symObjAddr: 0x3AD0, symBinAddr: 0x100005CD0, symSize: 0x48 }
  - { offsetInCU: 0xBE1F, offset: 0x13AFA, size: 0x8, addend: 0x0, symName: __ZNSt3__122__compressed_pair_elemIRNS_9allocatorI5FacetEELi1ELb0EEC2B8ue170006IS4_vEEOT_, symObjAddr: 0x3B18, symBinAddr: 0x100005D18, symSize: 0x20 }
  - { offsetInCU: 0xBE5F, offset: 0x13B3A, size: 0x8, addend: 0x0, symName: __ZNSt3__19allocatorI5FacetE8allocateB8ue170006Em, symObjAddr: 0x3B38, symBinAddr: 0x100005D38, symSize: 0x8C }
  - { offsetInCU: 0xBE91, offset: 0x13B6C, size: 0x8, addend: 0x0, symName: __ZNSt3__117__compressed_pairIP5FacetRNS_9allocatorIS1_EEE6secondB8ue170006Ev, symObjAddr: 0x3BC4, symBinAddr: 0x100005DC4, symSize: 0x28 }
  - { offsetInCU: 0xBEB5, offset: 0x13B90, size: 0x8, addend: 0x0, symName: __ZNSt3__122__compressed_pair_elemIRNS_9allocatorI5FacetEELi1ELb0EE5__getB8ue170006Ev, symObjAddr: 0x3BEC, symBinAddr: 0x100005DEC, symSize: 0x18 }
  - { offsetInCU: 0xBED9, offset: 0x13BB4, size: 0x8, addend: 0x0, symName: __ZNSt3__117__compressed_pairIP5FacetRNS_9allocatorIS1_EEE5firstB8ue170006Ev, symObjAddr: 0x3C04, symBinAddr: 0x100005E04, symSize: 0x24 }
  - { offsetInCU: 0xBEFD, offset: 0x13BD8, size: 0x8, addend: 0x0, symName: __ZNSt3__116reverse_iteratorIP5FacetEC1B8ue170006ES2_, symObjAddr: 0x3D10, symBinAddr: 0x100005F10, symSize: 0x34 }
  - { offsetInCU: 0xBF33, offset: 0x13C0E, size: 0x8, addend: 0x0, symName: __ZNKSt3__116reverse_iteratorIP5FacetE4baseB8ue170006Ev, symObjAddr: 0x3D44, symBinAddr: 0x100005F44, symSize: 0x18 }
  - { offsetInCU: 0xBF57, offset: 0x13C32, size: 0x8, addend: 0x0, symName: __ZNKSt3__16vectorI5FacetNS_9allocatorIS1_EEE14__annotate_newB8ue170006Em, symObjAddr: 0x3D98, symBinAddr: 0x100005F98, symSize: 0xC8 }
  - { offsetInCU: 0xBF8A, offset: 0x13C65, size: 0x8, addend: 0x0, symName: __ZNKSt3__116reverse_iteratorIP5FacetEdeB8ue170006Ev, symObjAddr: 0x3F0C, symBinAddr: 0x10000610C, symSize: 0x28 }
  - { offsetInCU: 0xBFBD, offset: 0x13C98, size: 0x8, addend: 0x0, symName: __ZNSt3__116reverse_iteratorIP5FacetEppB8ue170006Ev, symObjAddr: 0x3F34, symBinAddr: 0x100006134, symSize: 0x20 }
  - { offsetInCU: 0xBFE6, offset: 0x13CC1, size: 0x8, addend: 0x0, symName: __ZNSt3__119__to_address_helperINS_16reverse_iteratorIP5FacetEEvE6__callB8ue170006ERKS4_, symObjAddr: 0x3FCC, symBinAddr: 0x1000061CC, symSize: 0x4C }
  - { offsetInCU: 0xC008, offset: 0x13CE3, size: 0x8, addend: 0x0, symName: __ZNKSt3__116reverse_iteratorIP5FacetEptB8ue170006Ev, symObjAddr: 0x4018, symBinAddr: 0x100006218, symSize: 0x24 }
  - { offsetInCU: 0xC04F, offset: 0x13D2A, size: 0x8, addend: 0x0, symName: __ZNKSt3__111__move_loopINS_17_ClassicAlgPolicyEEclB8ue170006INS_16reverse_iteratorIP5FacetEES7_S7_EENS_4pairIT_T1_EES9_T0_SA_, symObjAddr: 0x42B4, symBinAddr: 0x1000064B4, symSize: 0x9C }
  - { offsetInCU: 0xC0BD, offset: 0x13D98, size: 0x8, addend: 0x0, symName: __ZNSt3__18_IterOpsINS_17_ClassicAlgPolicyEE11__iter_moveB8ue170006IRNS_16reverse_iteratorIP5FacetEEEENS_9enable_ifIXsr12is_referenceIDTdeclsr3stdE7declvalIRT_EEEEE5valueEDTclsr3stdE4movedeclsr3stdE7declvalISB_EEEEE4typeEOSA_, symObjAddr: 0x44B0, symBinAddr: 0x1000066B0, symSize: 0x28 }
  - { offsetInCU: 0xC0E8, offset: 0x13DC3, size: 0x8, addend: 0x0, symName: __ZNSt3__18_IterOpsINS_17_ClassicAlgPolicyEE25__validate_iter_referenceB8ue170006IRNS_16reverse_iteratorIP5FacetEEEEvv, symObjAddr: 0x44D8, symBinAddr: 0x1000066D8, symSize: 0x4 }
  - { offsetInCU: 0xC105, offset: 0x13DE0, size: 0x8, addend: 0x0, symName: __ZNSt3__118__unwrap_iter_implINS_16reverse_iteratorIP5FacetEELb0EE8__unwrapB8ue170006ES4_, symObjAddr: 0x44DC, symBinAddr: 0x1000066DC, symSize: 0x24 }
  - { offsetInCU: 0xC127, offset: 0x13E02, size: 0x8, addend: 0x0, symName: __ZNSt3__14pairINS_16reverse_iteratorIP5FacetEES4_EC1B8ue170006ERKS4_S7_, symObjAddr: 0x4500, symBinAddr: 0x100006700, symSize: 0x3C }
  - { offsetInCU: 0xC16B, offset: 0x13E46, size: 0x8, addend: 0x0, symName: __ZNSt3__14pairINS_16reverse_iteratorIP5FacetEES4_EC2B8ue170006ERKS4_S7_, symObjAddr: 0x453C, symBinAddr: 0x10000673C, symSize: 0x34 }
  - { offsetInCU: 0xC1AF, offset: 0x13E8A, size: 0x8, addend: 0x0, symName: __ZNSt3__118__unwrap_iter_implINS_16reverse_iteratorIP5FacetEELb0EE8__rewrapB8ue170006ES4_S4_, symObjAddr: 0x4570, symBinAddr: 0x100006770, symSize: 0x2C }
  - { offsetInCU: 0xC1DB, offset: 0x13EB6, size: 0x8, addend: 0x0, symName: __ZNSt3__116reverse_iteratorIP5FacetEC2B8ue170006ES2_, symObjAddr: 0x459C, symBinAddr: 0x10000679C, symSize: 0x28 }
  - { offsetInCU: 0xC211, offset: 0x13EEC, size: 0x8, addend: 0x0, symName: __ZNSt3__114__split_bufferI5FacetRNS_9allocatorIS1_EEED2Ev, symObjAddr: 0x45C4, symBinAddr: 0x1000067C4, symSize: 0x80 }
  - { offsetInCU: 0xC23C, offset: 0x13F17, size: 0x8, addend: 0x0, symName: __ZNSt3__114__split_bufferI5FacetRNS_9allocatorIS1_EEE5clearB8ue170006Ev, symObjAddr: 0x4644, symBinAddr: 0x100006844, symSize: 0x28 }
  - { offsetInCU: 0xC260, offset: 0x13F3B, size: 0x8, addend: 0x0, symName: __ZNKSt3__114__split_bufferI5FacetRNS_9allocatorIS1_EEE8capacityB8ue170006Ev, symObjAddr: 0x466C, symBinAddr: 0x10000686C, symSize: 0x40 }
  - { offsetInCU: 0xC284, offset: 0x13F5F, size: 0x8, addend: 0x0, symName: __ZNSt3__114__split_bufferI5FacetRNS_9allocatorIS1_EEE17__destruct_at_endB8ue170006EPS1_, symObjAddr: 0x46AC, symBinAddr: 0x1000068AC, symSize: 0x2C }
  - { offsetInCU: 0xC2B6, offset: 0x13F91, size: 0x8, addend: 0x0, symName: __ZNSt3__114__split_bufferI5FacetRNS_9allocatorIS1_EEE17__destruct_at_endB8ue170006EPS1_NS_17integral_constantIbLb0EEE, symObjAddr: 0x46D8, symBinAddr: 0x1000068D8, symSize: 0x94 }
  - { offsetInCU: 0xC2F4, offset: 0x13FCF, size: 0x8, addend: 0x0, symName: __ZNKSt3__114__split_bufferI5FacetRNS_9allocatorIS1_EEE9__end_capB8ue170006Ev, symObjAddr: 0x476C, symBinAddr: 0x10000696C, symSize: 0x28 }
  - { offsetInCU: 0xC318, offset: 0x13FF3, size: 0x8, addend: 0x0, symName: __ZNKSt3__117__compressed_pairIP5FacetRNS_9allocatorIS1_EEE5firstB8ue170006Ev, symObjAddr: 0x4794, symBinAddr: 0x100006994, symSize: 0x24 }
  - { offsetInCU: 0x26, offset: 0x14104, size: 0x8, addend: 0x0, symName: __ZNK7Section17PlaneInterSectionERK5Plane, symObjAddr: 0x0, symBinAddr: 0x1000069B8, symSize: 0x108 }
  - { offsetInCU: 0x2900, offset: 0x169DE, size: 0x8, addend: 0x0, symName: __ZNK7Section17PlaneInterSectionERK5Plane, symObjAddr: 0x0, symBinAddr: 0x1000069B8, symSize: 0x108 }
  - { offsetInCU: 0x2944, offset: 0x16A22, size: 0x8, addend: 0x0, symName: __ZNK5Plane6getRefEv, symObjAddr: 0x108, symBinAddr: 0x100006AC0, symSize: 0x14 }
  - { offsetInCU: 0x2968, offset: 0x16A46, size: 0x8, addend: 0x0, symName: __ZNK5Plane9getNormalEv, symObjAddr: 0x11C, symBinAddr: 0x100006AD4, symSize: 0x18 }
  - { offsetInCU: 0x298C, offset: 0x16A6A, size: 0x8, addend: 0x0, symName: __ZN7SectionC2E6VectorS0_, symObjAddr: 0x134, symBinAddr: 0x100006AEC, symSize: 0xB4 }
  - { offsetInCU: 0x29D3, offset: 0x16AB1, size: 0x8, addend: 0x0, symName: __ZN7SectionC1E6VectorS0_, symObjAddr: 0x22C, symBinAddr: 0x100006BA0, symSize: 0x5C }
  - { offsetInCU: 0x613D, offset: 0x1CC44, size: 0x8, addend: 0x0, symName: __ZNK6Vector9getLengthEv, symObjAddr: 0x0, symBinAddr: 0x100006BFC, symSize: 0x3C }
  - { offsetInCU: 0x6164, offset: 0x1CC6B, size: 0x8, addend: 0x0, symName: __ZN6Vector3dotERKS_S1_, symObjAddr: 0x3C, symBinAddr: 0x100006C38, symSize: 0x50 }
  - { offsetInCU: 0x6197, offset: 0x1CC9E, size: 0x8, addend: 0x0, symName: __ZN6Vector5crossERKS_S1_, symObjAddr: 0x8C, symBinAddr: 0x100006C88, symSize: 0xAC }
  - { offsetInCU: 0x61CA, offset: 0x1CCD1, size: 0x8, addend: 0x0, symName: __ZNK6Vector5printERNSt3__113basic_ostreamIcNS0_11char_traitsIcEEEE, symObjAddr: 0x17C, symBinAddr: 0x100006D34, symSize: 0x2C }
  - { offsetInCU: 0x61FF, offset: 0x1CD06, size: 0x8, addend: 0x0, symName: __ZlsRNSt3__113basic_ostreamIcNS_11char_traitsIcEEEERK6Vector, symObjAddr: 0x1A8, symBinAddr: 0x100006D60, symSize: 0x7C }
  - { offsetInCU: 0x6239, offset: 0x1CD40, size: 0x8, addend: 0x0, symName: __ZrsRNSt3__113basic_istreamIcNS_11char_traitsIcEEEER6Vector, symObjAddr: 0x26C, symBinAddr: 0x100006DDC, symSize: 0x48 }
  - { offsetInCU: 0x6273, offset: 0x1CD7A, size: 0x8, addend: 0x0, symName: __ZNK6VectormiERKS_, symObjAddr: 0x2B4, symBinAddr: 0x100006E24, symSize: 0x68 }
  - { offsetInCU: 0x62A8, offset: 0x1CDAF, size: 0x8, addend: 0x0, symName: __ZNK6VectorltERd, symObjAddr: 0x31C, symBinAddr: 0x100006E8C, symSize: 0x30 }
  - { offsetInCU: 0x62DD, offset: 0x1CDE4, size: 0x8, addend: 0x0, symName: __ZNK6VectorgtERd, symObjAddr: 0x34C, symBinAddr: 0x100006EBC, symSize: 0x30 }
  - { offsetInCU: 0x6312, offset: 0x1CE19, size: 0x8, addend: 0x0, symName: __ZrsRdRK6Vector, symObjAddr: 0x37C, symBinAddr: 0x100006EEC, symSize: 0x24 }
  - { offsetInCU: 0x6349, offset: 0x1CE50, size: 0x8, addend: 0x0, symName: __ZN6VectormlEd, symObjAddr: 0x3A0, symBinAddr: 0x100006F10, symSize: 0x48 }
  - { offsetInCU: 0x3C3C, offset: 0x20B5D, size: 0x8, addend: 0x0, symName: __ZNSt3__14endlB8ue170006IcNS_11char_traitsIcEEEERNS_13basic_ostreamIT_T0_EES7_, symObjAddr: 0x378, symBinAddr: 0x10000728C, symSize: 0x58 }
  - { offsetInCU: 0x3C7C, offset: 0x20B9D, size: 0x8, addend: 0x0, symName: __ZNSt3__1lsB8ue170006INS_11char_traitsIcEEEERNS_13basic_ostreamIcT_EES6_c, symObjAddr: 0x42C, symBinAddr: 0x100007340, symSize: 0x34 }
  - { offsetInCU: 0x5C81, offset: 0x22BA2, size: 0x8, addend: 0x0, symName: _main, symObjAddr: 0x0, symBinAddr: 0x100006F58, symSize: 0x308 }
  - { offsetInCU: 0x5D01, offset: 0x22C22, size: 0x8, addend: 0x0, symName: __ZNSt3__113basic_ostreamIcNS_11char_traitsIcEEElsB8ue170006EPFRS3_S4_E, symObjAddr: 0x34C, symBinAddr: 0x100007260, symSize: 0x2C }
  - { offsetInCU: 0x5D33, offset: 0x22C54, size: 0x8, addend: 0x0, symName: __ZN5PlaneC1E6VectorS0_, symObjAddr: 0x3D0, symBinAddr: 0x1000072E4, symSize: 0x5C }
  - { offsetInCU: 0x5D77, offset: 0x22C98, size: 0x8, addend: 0x0, symName: __ZN5PlaneC2E6VectorS0_, symObjAddr: 0x4EC, symBinAddr: 0x100007374, symSize: 0x4C }
...
