---
triple:          'arm64-apple-darwin'
binary-path:     '/Users/krisztiancsuta/Documents/GitHub/STL_Slicer/Code/include/main'
relocations:
  - { offsetInCU: 0x5977, offset: 0x5977, size: 0x8, addend: 0x0, symName: __ZNSt3__1neB8ue170006IPN3STL5FacetEEEbRKNS_11__wrap_iterIT_EES8_, symObjAddr: 0x2D4, symBinAddr: 0x100001848, symSize: 0x34 }
  - { offsetInCU: 0x59BA, offset: 0x59BA, size: 0x8, addend: 0x0, symName: __ZNSt3__1neB8ue170006IPN3STL4LineEEEbRKNS_11__wrap_iterIT_EES8_, symObjAddr: 0x3A0, symBinAddr: 0x100001914, symSize: 0x34 }
  - { offsetInCU: 0x59FD, offset: 0x59FD, size: 0x8, addend: 0x0, symName: __ZNSt3__118__constexpr_strlenB8ue170006EPKc, symObjAddr: 0x628, symBinAddr: 0x100001B9C, symSize: 0x24 }
  - { offsetInCU: 0x5A29, offset: 0x5A29, size: 0x8, addend: 0x0, symName: __ZNSt3__112__to_addressB8ue170006IN3STL5FacetEEEPT_S4_, symObjAddr: 0x9D0, symBinAddr: 0x100001F44, symSize: 0x14 }
  - { offsetInCU: 0x5A5E, offset: 0x5A5E, size: 0x8, addend: 0x0, symName: __ZNSt3__130__libcpp_is_constant_evaluatedB8ue170006Ev, symObjAddr: 0xC68, symBinAddr: 0x1000021DC, symSize: 0xC }
  - { offsetInCU: 0x5A7B, offset: 0x5A7B, size: 0x8, addend: 0x0, symName: __ZNSt3__119__libcpp_deallocateB8ue170006EPvmm, symObjAddr: 0xC74, symBinAddr: 0x1000021E8, symSize: 0x30 }
  - { offsetInCU: 0x5AC3, offset: 0x5AC3, size: 0x8, addend: 0x0, symName: __ZNSt3__127__do_deallocate_handle_sizeB8ue170006IJEEEvPvmDpT_, symObjAddr: 0xCA4, symBinAddr: 0x100002218, symSize: 0x28 }
  - { offsetInCU: 0x5B01, offset: 0x5B01, size: 0x8, addend: 0x0, symName: __ZNSt3__124__libcpp_operator_deleteB8ue170006IJPvEEEvDpT_, symObjAddr: 0xCCC, symBinAddr: 0x100002240, symSize: 0x24 }
  - { offsetInCU: 0x5B36, offset: 0x5B36, size: 0x8, addend: 0x0, symName: __ZNSt3__1eqB8ue170006IPN3STL5FacetEEEbRKNS_11__wrap_iterIT_EES8_, symObjAddr: 0xE0C, symBinAddr: 0x100002380, symSize: 0x48 }
  - { offsetInCU: 0x5B79, offset: 0x5B79, size: 0x8, addend: 0x0, symName: __ZNSt3__112__to_addressB8ue170006IN3STL4LineEEEPT_S4_, symObjAddr: 0x11F0, symBinAddr: 0x100002764, symSize: 0x14 }
  - { offsetInCU: 0x5BAE, offset: 0x5BAE, size: 0x8, addend: 0x0, symName: __ZNSt3__1eqB8ue170006IPN3STL4LineEEEbRKNS_11__wrap_iterIT_EES8_, symObjAddr: 0x14C0, symBinAddr: 0x100002A34, symSize: 0x48 }
  - { offsetInCU: 0x5BF1, offset: 0x5BF1, size: 0x8, addend: 0x0, symName: __ZNSt3__112__to_addressB8ue170006IN3STL5PointEEEPT_S4_, symObjAddr: 0x1888, symBinAddr: 0x100002DFC, symSize: 0x14 }
  - { offsetInCU: 0x8822, offset: 0x8822, size: 0x8, addend: 0x0, symName: _main, symObjAddr: 0x0, symBinAddr: 0x100001574, symSize: 0x234 }
  - { offsetInCU: 0x8A55, offset: 0x8A55, size: 0x8, addend: 0x0, symName: __ZNSt3__112basic_stringIcNS_11char_traitsIcEENS_9allocatorIcEEEC1B8ue170006ILi0EEEPKc, symObjAddr: 0x234, symBinAddr: 0x1000017A8, symSize: 0x34 }
  - { offsetInCU: 0x8A92, offset: 0x8A92, size: 0x8, addend: 0x0, symName: __ZNSt3__16vectorIN3STL5FacetENS_9allocatorIS2_EEE5beginB8ue170006Ev, symObjAddr: 0x274, symBinAddr: 0x1000017E8, symSize: 0x30 }
  - { offsetInCU: 0x8AB8, offset: 0x8AB8, size: 0x8, addend: 0x0, symName: __ZNSt3__16vectorIN3STL5FacetENS_9allocatorIS2_EEE3endB8ue170006Ev, symObjAddr: 0x2A4, symBinAddr: 0x100001818, symSize: 0x30 }
  - { offsetInCU: 0x8ADE, offset: 0x8ADE, size: 0x8, addend: 0x0, symName: __ZNKSt3__111__wrap_iterIPN3STL5FacetEEdeB8ue170006Ev, symObjAddr: 0x308, symBinAddr: 0x10000187C, symSize: 0x18 }
  - { offsetInCU: 0x8B02, offset: 0x8B02, size: 0x8, addend: 0x0, symName: __ZNSt3__111__wrap_iterIPN3STL5FacetEEppB8ue170006Ev, symObjAddr: 0x320, symBinAddr: 0x100001894, symSize: 0x20 }
  - { offsetInCU: 0x8B26, offset: 0x8B26, size: 0x8, addend: 0x0, symName: __ZNSt3__16vectorIN3STL4LineENS_9allocatorIS2_EEE5beginB8ue170006Ev, symObjAddr: 0x340, symBinAddr: 0x1000018B4, symSize: 0x30 }
  - { offsetInCU: 0x8B4C, offset: 0x8B4C, size: 0x8, addend: 0x0, symName: __ZNSt3__16vectorIN3STL4LineENS_9allocatorIS2_EEE3endB8ue170006Ev, symObjAddr: 0x370, symBinAddr: 0x1000018E4, symSize: 0x30 }
  - { offsetInCU: 0x8B72, offset: 0x8B72, size: 0x8, addend: 0x0, symName: __ZNKSt3__111__wrap_iterIPN3STL4LineEEdeB8ue170006Ev, symObjAddr: 0x3D4, symBinAddr: 0x100001948, symSize: 0x18 }
  - { offsetInCU: 0x8B96, offset: 0x8B96, size: 0x8, addend: 0x0, symName: __ZNSt3__111__wrap_iterIPN3STL4LineEEppB8ue170006Ev, symObjAddr: 0x3EC, symBinAddr: 0x100001960, symSize: 0x20 }
  - { offsetInCU: 0x8BBA, offset: 0x8BBA, size: 0x8, addend: 0x0, symName: __ZNSt3__16vectorIN3STL5PointENS_9allocatorIS2_EEED1B8ue170006Ev, symObjAddr: 0x40C, symBinAddr: 0x100001980, symSize: 0x2C }
  - { offsetInCU: 0x8BE2, offset: 0x8BE2, size: 0x8, addend: 0x0, symName: __ZNSt3__16vectorIN3STL4LineENS_9allocatorIS2_EEED1B8ue170006Ev, symObjAddr: 0x438, symBinAddr: 0x1000019AC, symSize: 0x2C }
  - { offsetInCU: 0x8C0A, offset: 0x8C0A, size: 0x8, addend: 0x0, symName: __ZNSt3__16vectorIN3STL5FacetENS_9allocatorIS2_EEED1B8ue170006Ev, symObjAddr: 0x464, symBinAddr: 0x1000019D8, symSize: 0x2C }
  - { offsetInCU: 0x8C32, offset: 0x8C32, size: 0x8, addend: 0x0, symName: __ZNSt3__112basic_stringIcNS_11char_traitsIcEENS_9allocatorIcEEEC2B8ue170006ILi0EEEPKc, symObjAddr: 0x490, symBinAddr: 0x100001A04, symSize: 0x58 }
  - { offsetInCU: 0x8C74, offset: 0x8C74, size: 0x8, addend: 0x0, symName: __ZNSt3__117__compressed_pairINS_12basic_stringIcNS_11char_traitsIcEENS_9allocatorIcEEE5__repES5_EC1B8ue170006INS_18__default_init_tagESA_EEOT_OT0_, symObjAddr: 0x4E8, symBinAddr: 0x100001A5C, symSize: 0x3C }
  - { offsetInCU: 0x8CCA, offset: 0x8CCA, size: 0x8, addend: 0x0, symName: __ZNSt3__111char_traitsIcE6lengthB8ue170006EPKc, symObjAddr: 0x524, symBinAddr: 0x100001A98, symSize: 0x48 }
  - { offsetInCU: 0x8CEC, offset: 0x8CEC, size: 0x8, addend: 0x0, symName: __ZNSt3__117__compressed_pairINS_12basic_stringIcNS_11char_traitsIcEENS_9allocatorIcEEE5__repES5_EC2B8ue170006INS_18__default_init_tagESA_EEOT_OT0_, symObjAddr: 0x56C, symBinAddr: 0x100001AE0, symSize: 0x3C }
  - { offsetInCU: 0x8D42, offset: 0x8D42, size: 0x8, addend: 0x0, symName: __ZNSt3__122__compressed_pair_elemINS_12basic_stringIcNS_11char_traitsIcEENS_9allocatorIcEEE5__repELi0ELb0EEC2B8ue170006ENS_18__default_init_tagE, symObjAddr: 0x5A8, symBinAddr: 0x100001B1C, symSize: 0x14 }
  - { offsetInCU: 0x8D74, offset: 0x8D74, size: 0x8, addend: 0x0, symName: __ZNSt3__122__compressed_pair_elemINS_9allocatorIcEELi1ELb1EEC2B8ue170006ENS_18__default_init_tagE, symObjAddr: 0x5BC, symBinAddr: 0x100001B30, symSize: 0x2C }
  - { offsetInCU: 0x8DA6, offset: 0x8DA6, size: 0x8, addend: 0x0, symName: __ZNSt3__19allocatorIcEC2B8ue170006Ev, symObjAddr: 0x5E8, symBinAddr: 0x100001B5C, symSize: 0x2C }
  - { offsetInCU: 0x8DCE, offset: 0x8DCE, size: 0x8, addend: 0x0, symName: __ZNSt3__116__non_trivial_ifILb1ENS_9allocatorIcEEEC2B8ue170006Ev, symObjAddr: 0x614, symBinAddr: 0x100001B88, symSize: 0x14 }
  - { offsetInCU: 0x8DF6, offset: 0x8DF6, size: 0x8, addend: 0x0, symName: __ZNSt3__16vectorIN3STL5FacetENS_9allocatorIS2_EEED2B8ue170006Ev, symObjAddr: 0x64C, symBinAddr: 0x100001BC0, symSize: 0x3C }
  - { offsetInCU: 0x8E1E, offset: 0x8E1E, size: 0x8, addend: 0x0, symName: __ZNSt3__16vectorIN3STL5FacetENS_9allocatorIS2_EEE16__destroy_vectorC1B8ue170006ERS5_, symObjAddr: 0x688, symBinAddr: 0x100001BFC, symSize: 0x34 }
  - { offsetInCU: 0x8E55, offset: 0x8E55, size: 0x8, addend: 0x0, symName: __ZNSt3__16vectorIN3STL5FacetENS_9allocatorIS2_EEE16__destroy_vectorclB8ue170006Ev, symObjAddr: 0x6BC, symBinAddr: 0x100001C30, symSize: 0x90 }
  - { offsetInCU: 0x8E79, offset: 0x8E79, size: 0x8, addend: 0x0, symName: __ZNSt3__16vectorIN3STL5FacetENS_9allocatorIS2_EEE16__destroy_vectorC2B8ue170006ERS5_, symObjAddr: 0x74C, symBinAddr: 0x100001CC0, symSize: 0x20 }
  - { offsetInCU: 0x8EB0, offset: 0x8EB0, size: 0x8, addend: 0x0, symName: __ZNSt3__16vectorIN3STL5FacetENS_9allocatorIS2_EEE7__clearB8ue170006Ev, symObjAddr: 0x76C, symBinAddr: 0x100001CE0, symSize: 0x28 }
  - { offsetInCU: 0x8ED4, offset: 0x8ED4, size: 0x8, addend: 0x0, symName: __ZNKSt3__16vectorIN3STL5FacetENS_9allocatorIS2_EEE17__annotate_deleteB8ue170006Ev, symObjAddr: 0x794, symBinAddr: 0x100001D08, symSize: 0xD4 }
  - { offsetInCU: 0x8EF8, offset: 0x8EF8, size: 0x8, addend: 0x0, symName: __ZNSt3__116allocator_traitsINS_9allocatorIN3STL5FacetEEEE10deallocateB8ue170006ERS4_PS3_m, symObjAddr: 0x868, symBinAddr: 0x100001DDC, symSize: 0x34 }
  - { offsetInCU: 0x8F39, offset: 0x8F39, size: 0x8, addend: 0x0, symName: __ZNSt3__16vectorIN3STL5FacetENS_9allocatorIS2_EEE7__allocB8ue170006Ev, symObjAddr: 0x89C, symBinAddr: 0x100001E10, symSize: 0x28 }
  - { offsetInCU: 0x8F5D, offset: 0x8F5D, size: 0x8, addend: 0x0, symName: __ZNKSt3__16vectorIN3STL5FacetENS_9allocatorIS2_EEE8capacityB8ue170006Ev, symObjAddr: 0x8C4, symBinAddr: 0x100001E38, symSize: 0x40 }
  - { offsetInCU: 0x8F81, offset: 0x8F81, size: 0x8, addend: 0x0, symName: __ZNSt3__16vectorIN3STL5FacetENS_9allocatorIS2_EEE22__base_destruct_at_endB8ue170006EPS2_, symObjAddr: 0x904, symBinAddr: 0x100001E78, symSize: 0xA0 }
  - { offsetInCU: 0x8FC3, offset: 0x8FC3, size: 0x8, addend: 0x0, symName: __ZNSt3__116allocator_traitsINS_9allocatorIN3STL5FacetEEEE7destroyB8ue170006IS3_vEEvRS4_PT_, symObjAddr: 0x9A4, symBinAddr: 0x100001F18, symSize: 0x2C }
  - { offsetInCU: 0x8FFF, offset: 0x8FFF, size: 0x8, addend: 0x0, symName: __ZNSt3__19allocatorIN3STL5FacetEE7destroyB8ue170006EPS2_, symObjAddr: 0x9E4, symBinAddr: 0x100001F58, symSize: 0x28 }
  - { offsetInCU: 0x9031, offset: 0x9031, size: 0x8, addend: 0x0, symName: __ZN3STL5FacetD1Ev, symObjAddr: 0xA0C, symBinAddr: 0x100001F80, symSize: 0x2C }
  - { offsetInCU: 0x9059, offset: 0x9059, size: 0x8, addend: 0x0, symName: __ZN3STL5FacetD2Ev, symObjAddr: 0xA38, symBinAddr: 0x100001FAC, symSize: 0xCC }
  - { offsetInCU: 0x9081, offset: 0x9081, size: 0x8, addend: 0x0, symName: __ZN3STL5PointD1Ev, symObjAddr: 0xB04, symBinAddr: 0x100002078, symSize: 0x2C }
  - { offsetInCU: 0x90A9, offset: 0x90A9, size: 0x8, addend: 0x0, symName: __ZN3STL6VectorD1Ev, symObjAddr: 0xB30, symBinAddr: 0x1000020A4, symSize: 0x2C }
  - { offsetInCU: 0x90D1, offset: 0x90D1, size: 0x8, addend: 0x0, symName: __ZN3STL5PointD2Ev, symObjAddr: 0xB5C, symBinAddr: 0x1000020D0, symSize: 0x14 }
  - { offsetInCU: 0x90F9, offset: 0x90F9, size: 0x8, addend: 0x0, symName: __ZN3STL6VectorD2Ev, symObjAddr: 0xB70, symBinAddr: 0x1000020E4, symSize: 0x14 }
  - { offsetInCU: 0x9121, offset: 0x9121, size: 0x8, addend: 0x0, symName: __ZNKSt3__16vectorIN3STL5FacetENS_9allocatorIS2_EEE31__annotate_contiguous_containerB8ue170006EPKvS7_S7_S7_, symObjAddr: 0xB84, symBinAddr: 0x1000020F8, symSize: 0x20 }
  - { offsetInCU: 0x9171, offset: 0x9171, size: 0x8, addend: 0x0, symName: __ZNKSt3__16vectorIN3STL5FacetENS_9allocatorIS2_EEE4dataB8ue170006Ev, symObjAddr: 0xBA4, symBinAddr: 0x100002118, symSize: 0x28 }
  - { offsetInCU: 0x9195, offset: 0x9195, size: 0x8, addend: 0x0, symName: __ZNKSt3__16vectorIN3STL5FacetENS_9allocatorIS2_EEE4sizeB8ue170006Ev, symObjAddr: 0xBCC, symBinAddr: 0x100002140, symSize: 0x28 }
  - { offsetInCU: 0x91B9, offset: 0x91B9, size: 0x8, addend: 0x0, symName: __ZNSt3__19allocatorIN3STL5FacetEE10deallocateB8ue170006EPS2_m, symObjAddr: 0xBF4, symBinAddr: 0x100002168, symSize: 0x74 }
  - { offsetInCU: 0x91F9, offset: 0x91F9, size: 0x8, addend: 0x0, symName: __ZNSt3__117__compressed_pairIPN3STL5FacetENS_9allocatorIS2_EEE6secondB8ue170006Ev, symObjAddr: 0xCF0, symBinAddr: 0x100002264, symSize: 0x24 }
  - { offsetInCU: 0x921D, offset: 0x921D, size: 0x8, addend: 0x0, symName: __ZNSt3__122__compressed_pair_elemINS_9allocatorIN3STL5FacetEEELi1ELb1EE5__getB8ue170006Ev, symObjAddr: 0xD14, symBinAddr: 0x100002288, symSize: 0x14 }
  - { offsetInCU: 0x9241, offset: 0x9241, size: 0x8, addend: 0x0, symName: __ZNKSt3__16vectorIN3STL5FacetENS_9allocatorIS2_EEE9__end_capB8ue170006Ev, symObjAddr: 0xD28, symBinAddr: 0x10000229C, symSize: 0x28 }
  - { offsetInCU: 0x9265, offset: 0x9265, size: 0x8, addend: 0x0, symName: __ZNKSt3__117__compressed_pairIPN3STL5FacetENS_9allocatorIS2_EEE5firstB8ue170006Ev, symObjAddr: 0xD50, symBinAddr: 0x1000022C4, symSize: 0x24 }
  - { offsetInCU: 0x9289, offset: 0x9289, size: 0x8, addend: 0x0, symName: __ZNKSt3__122__compressed_pair_elemIPN3STL5FacetELi0ELb0EE5__getB8ue170006Ev, symObjAddr: 0xD74, symBinAddr: 0x1000022E8, symSize: 0x14 }
  - { offsetInCU: 0x92AD, offset: 0x92AD, size: 0x8, addend: 0x0, symName: __ZNSt3__16vectorIN3STL5FacetENS_9allocatorIS2_EEE11__make_iterB8ue170006EPS2_, symObjAddr: 0xD88, symBinAddr: 0x1000022FC, symSize: 0x30 }
  - { offsetInCU: 0x92E0, offset: 0x92E0, size: 0x8, addend: 0x0, symName: __ZNSt3__111__wrap_iterIPN3STL5FacetEEC1B8ue170006ES3_, symObjAddr: 0xDB8, symBinAddr: 0x10000232C, symSize: 0x34 }
  - { offsetInCU: 0x9316, offset: 0x9316, size: 0x8, addend: 0x0, symName: __ZNSt3__111__wrap_iterIPN3STL5FacetEEC2B8ue170006ES3_, symObjAddr: 0xDEC, symBinAddr: 0x100002360, symSize: 0x20 }
  - { offsetInCU: 0x934C, offset: 0x934C, size: 0x8, addend: 0x0, symName: __ZNKSt3__111__wrap_iterIPN3STL5FacetEE4baseB8ue170006Ev, symObjAddr: 0xE54, symBinAddr: 0x1000023C8, symSize: 0x18 }
  - { offsetInCU: 0x9370, offset: 0x9370, size: 0x8, addend: 0x0, symName: __ZNSt3__16vectorIN3STL4LineENS_9allocatorIS2_EEED2B8ue170006Ev, symObjAddr: 0xE6C, symBinAddr: 0x1000023E0, symSize: 0x3C }
  - { offsetInCU: 0x9398, offset: 0x9398, size: 0x8, addend: 0x0, symName: __ZNSt3__16vectorIN3STL4LineENS_9allocatorIS2_EEE16__destroy_vectorC1B8ue170006ERS5_, symObjAddr: 0xEA8, symBinAddr: 0x10000241C, symSize: 0x34 }
  - { offsetInCU: 0x93CF, offset: 0x93CF, size: 0x8, addend: 0x0, symName: __ZNSt3__16vectorIN3STL4LineENS_9allocatorIS2_EEE16__destroy_vectorclB8ue170006Ev, symObjAddr: 0xEDC, symBinAddr: 0x100002450, symSize: 0x90 }
  - { offsetInCU: 0x93F3, offset: 0x93F3, size: 0x8, addend: 0x0, symName: __ZNSt3__16vectorIN3STL4LineENS_9allocatorIS2_EEE16__destroy_vectorC2B8ue170006ERS5_, symObjAddr: 0xF6C, symBinAddr: 0x1000024E0, symSize: 0x20 }
  - { offsetInCU: 0x942A, offset: 0x942A, size: 0x8, addend: 0x0, symName: __ZNSt3__16vectorIN3STL4LineENS_9allocatorIS2_EEE7__clearB8ue170006Ev, symObjAddr: 0xF8C, symBinAddr: 0x100002500, symSize: 0x28 }
  - { offsetInCU: 0x944E, offset: 0x944E, size: 0x8, addend: 0x0, symName: __ZNKSt3__16vectorIN3STL4LineENS_9allocatorIS2_EEE17__annotate_deleteB8ue170006Ev, symObjAddr: 0xFB4, symBinAddr: 0x100002528, symSize: 0xD4 }
  - { offsetInCU: 0x9472, offset: 0x9472, size: 0x8, addend: 0x0, symName: __ZNSt3__116allocator_traitsINS_9allocatorIN3STL4LineEEEE10deallocateB8ue170006ERS4_PS3_m, symObjAddr: 0x1088, symBinAddr: 0x1000025FC, symSize: 0x34 }
  - { offsetInCU: 0x94B3, offset: 0x94B3, size: 0x8, addend: 0x0, symName: __ZNSt3__16vectorIN3STL4LineENS_9allocatorIS2_EEE7__allocB8ue170006Ev, symObjAddr: 0x10BC, symBinAddr: 0x100002630, symSize: 0x28 }
  - { offsetInCU: 0x94D7, offset: 0x94D7, size: 0x8, addend: 0x0, symName: __ZNKSt3__16vectorIN3STL4LineENS_9allocatorIS2_EEE8capacityB8ue170006Ev, symObjAddr: 0x10E4, symBinAddr: 0x100002658, symSize: 0x40 }
  - { offsetInCU: 0x94FB, offset: 0x94FB, size: 0x8, addend: 0x0, symName: __ZNSt3__16vectorIN3STL4LineENS_9allocatorIS2_EEE22__base_destruct_at_endB8ue170006EPS2_, symObjAddr: 0x1124, symBinAddr: 0x100002698, symSize: 0xA0 }
  - { offsetInCU: 0x953D, offset: 0x953D, size: 0x8, addend: 0x0, symName: __ZNSt3__116allocator_traitsINS_9allocatorIN3STL4LineEEEE7destroyB8ue170006IS3_vEEvRS4_PT_, symObjAddr: 0x11C4, symBinAddr: 0x100002738, symSize: 0x2C }
  - { offsetInCU: 0x9579, offset: 0x9579, size: 0x8, addend: 0x0, symName: __ZNSt3__19allocatorIN3STL4LineEE7destroyB8ue170006EPS2_, symObjAddr: 0x1204, symBinAddr: 0x100002778, symSize: 0x28 }
  - { offsetInCU: 0x95AB, offset: 0x95AB, size: 0x8, addend: 0x0, symName: __ZN3STL4LineD1Ev, symObjAddr: 0x122C, symBinAddr: 0x1000027A0, symSize: 0x2C }
  - { offsetInCU: 0x95D3, offset: 0x95D3, size: 0x8, addend: 0x0, symName: __ZN3STL4LineD2Ev, symObjAddr: 0x1258, symBinAddr: 0x1000027CC, symSize: 0x68 }
  - { offsetInCU: 0x95FB, offset: 0x95FB, size: 0x8, addend: 0x0, symName: __ZNKSt3__16vectorIN3STL4LineENS_9allocatorIS2_EEE31__annotate_contiguous_containerB8ue170006EPKvS7_S7_S7_, symObjAddr: 0x12C0, symBinAddr: 0x100002834, symSize: 0x20 }
  - { offsetInCU: 0x964B, offset: 0x964B, size: 0x8, addend: 0x0, symName: __ZNKSt3__16vectorIN3STL4LineENS_9allocatorIS2_EEE4dataB8ue170006Ev, symObjAddr: 0x12E0, symBinAddr: 0x100002854, symSize: 0x28 }
  - { offsetInCU: 0x966F, offset: 0x966F, size: 0x8, addend: 0x0, symName: __ZNKSt3__16vectorIN3STL4LineENS_9allocatorIS2_EEE4sizeB8ue170006Ev, symObjAddr: 0x1308, symBinAddr: 0x10000287C, symSize: 0x28 }
  - { offsetInCU: 0x9693, offset: 0x9693, size: 0x8, addend: 0x0, symName: __ZNSt3__19allocatorIN3STL4LineEE10deallocateB8ue170006EPS2_m, symObjAddr: 0x1330, symBinAddr: 0x1000028A4, symSize: 0x74 }
  - { offsetInCU: 0x96D3, offset: 0x96D3, size: 0x8, addend: 0x0, symName: __ZNSt3__117__compressed_pairIPN3STL4LineENS_9allocatorIS2_EEE6secondB8ue170006Ev, symObjAddr: 0x13A4, symBinAddr: 0x100002918, symSize: 0x24 }
  - { offsetInCU: 0x96F7, offset: 0x96F7, size: 0x8, addend: 0x0, symName: __ZNSt3__122__compressed_pair_elemINS_9allocatorIN3STL4LineEEELi1ELb1EE5__getB8ue170006Ev, symObjAddr: 0x13C8, symBinAddr: 0x10000293C, symSize: 0x14 }
  - { offsetInCU: 0x971B, offset: 0x971B, size: 0x8, addend: 0x0, symName: __ZNKSt3__16vectorIN3STL4LineENS_9allocatorIS2_EEE9__end_capB8ue170006Ev, symObjAddr: 0x13DC, symBinAddr: 0x100002950, symSize: 0x28 }
  - { offsetInCU: 0x973F, offset: 0x973F, size: 0x8, addend: 0x0, symName: __ZNKSt3__117__compressed_pairIPN3STL4LineENS_9allocatorIS2_EEE5firstB8ue170006Ev, symObjAddr: 0x1404, symBinAddr: 0x100002978, symSize: 0x24 }
  - { offsetInCU: 0x9763, offset: 0x9763, size: 0x8, addend: 0x0, symName: __ZNKSt3__122__compressed_pair_elemIPN3STL4LineELi0ELb0EE5__getB8ue170006Ev, symObjAddr: 0x1428, symBinAddr: 0x10000299C, symSize: 0x14 }
  - { offsetInCU: 0x9787, offset: 0x9787, size: 0x8, addend: 0x0, symName: __ZNSt3__16vectorIN3STL4LineENS_9allocatorIS2_EEE11__make_iterB8ue170006EPS2_, symObjAddr: 0x143C, symBinAddr: 0x1000029B0, symSize: 0x30 }
  - { offsetInCU: 0x97BA, offset: 0x97BA, size: 0x8, addend: 0x0, symName: __ZNSt3__111__wrap_iterIPN3STL4LineEEC1B8ue170006ES3_, symObjAddr: 0x146C, symBinAddr: 0x1000029E0, symSize: 0x34 }
  - { offsetInCU: 0x97F0, offset: 0x97F0, size: 0x8, addend: 0x0, symName: __ZNSt3__111__wrap_iterIPN3STL4LineEEC2B8ue170006ES3_, symObjAddr: 0x14A0, symBinAddr: 0x100002A14, symSize: 0x20 }
  - { offsetInCU: 0x9826, offset: 0x9826, size: 0x8, addend: 0x0, symName: __ZNKSt3__111__wrap_iterIPN3STL4LineEE4baseB8ue170006Ev, symObjAddr: 0x1508, symBinAddr: 0x100002A7C, symSize: 0x18 }
  - { offsetInCU: 0x984A, offset: 0x984A, size: 0x8, addend: 0x0, symName: __ZNSt3__16vectorIN3STL5PointENS_9allocatorIS2_EEED2B8ue170006Ev, symObjAddr: 0x1520, symBinAddr: 0x100002A94, symSize: 0x3C }
  - { offsetInCU: 0x9872, offset: 0x9872, size: 0x8, addend: 0x0, symName: __ZNSt3__16vectorIN3STL5PointENS_9allocatorIS2_EEE16__destroy_vectorC1B8ue170006ERS5_, symObjAddr: 0x155C, symBinAddr: 0x100002AD0, symSize: 0x34 }
  - { offsetInCU: 0x98A9, offset: 0x98A9, size: 0x8, addend: 0x0, symName: __ZNSt3__16vectorIN3STL5PointENS_9allocatorIS2_EEE16__destroy_vectorclB8ue170006Ev, symObjAddr: 0x1590, symBinAddr: 0x100002B04, symSize: 0x90 }
  - { offsetInCU: 0x98CD, offset: 0x98CD, size: 0x8, addend: 0x0, symName: __ZNSt3__16vectorIN3STL5PointENS_9allocatorIS2_EEE16__destroy_vectorC2B8ue170006ERS5_, symObjAddr: 0x1620, symBinAddr: 0x100002B94, symSize: 0x20 }
  - { offsetInCU: 0x9904, offset: 0x9904, size: 0x8, addend: 0x0, symName: __ZNSt3__16vectorIN3STL5PointENS_9allocatorIS2_EEE7__clearB8ue170006Ev, symObjAddr: 0x1640, symBinAddr: 0x100002BB4, symSize: 0x28 }
  - { offsetInCU: 0x9928, offset: 0x9928, size: 0x8, addend: 0x0, symName: __ZNKSt3__16vectorIN3STL5PointENS_9allocatorIS2_EEE17__annotate_deleteB8ue170006Ev, symObjAddr: 0x1668, symBinAddr: 0x100002BDC, symSize: 0xB8 }
  - { offsetInCU: 0x994C, offset: 0x994C, size: 0x8, addend: 0x0, symName: __ZNSt3__116allocator_traitsINS_9allocatorIN3STL5PointEEEE10deallocateB8ue170006ERS4_PS3_m, symObjAddr: 0x1720, symBinAddr: 0x100002C94, symSize: 0x34 }
  - { offsetInCU: 0x998D, offset: 0x998D, size: 0x8, addend: 0x0, symName: __ZNSt3__16vectorIN3STL5PointENS_9allocatorIS2_EEE7__allocB8ue170006Ev, symObjAddr: 0x1754, symBinAddr: 0x100002CC8, symSize: 0x28 }
  - { offsetInCU: 0x99B1, offset: 0x99B1, size: 0x8, addend: 0x0, symName: __ZNKSt3__16vectorIN3STL5PointENS_9allocatorIS2_EEE8capacityB8ue170006Ev, symObjAddr: 0x177C, symBinAddr: 0x100002CF0, symSize: 0x40 }
  - { offsetInCU: 0x99D5, offset: 0x99D5, size: 0x8, addend: 0x0, symName: __ZNSt3__16vectorIN3STL5PointENS_9allocatorIS2_EEE22__base_destruct_at_endB8ue170006EPS2_, symObjAddr: 0x17BC, symBinAddr: 0x100002D30, symSize: 0xA0 }
  - { offsetInCU: 0x9A17, offset: 0x9A17, size: 0x8, addend: 0x0, symName: __ZNSt3__116allocator_traitsINS_9allocatorIN3STL5PointEEEE7destroyB8ue170006IS3_vEEvRS4_PT_, symObjAddr: 0x185C, symBinAddr: 0x100002DD0, symSize: 0x2C }
  - { offsetInCU: 0x9A53, offset: 0x9A53, size: 0x8, addend: 0x0, symName: __ZNSt3__19allocatorIN3STL5PointEE7destroyB8ue170006EPS2_, symObjAddr: 0x189C, symBinAddr: 0x100002E10, symSize: 0x28 }
  - { offsetInCU: 0x9A85, offset: 0x9A85, size: 0x8, addend: 0x0, symName: __ZNKSt3__16vectorIN3STL5PointENS_9allocatorIS2_EEE31__annotate_contiguous_containerB8ue170006EPKvS7_S7_S7_, symObjAddr: 0x18C4, symBinAddr: 0x100002E38, symSize: 0x20 }
  - { offsetInCU: 0x9AD5, offset: 0x9AD5, size: 0x8, addend: 0x0, symName: __ZNKSt3__16vectorIN3STL5PointENS_9allocatorIS2_EEE4dataB8ue170006Ev, symObjAddr: 0x18E4, symBinAddr: 0x100002E58, symSize: 0x28 }
  - { offsetInCU: 0x9AF9, offset: 0x9AF9, size: 0x8, addend: 0x0, symName: __ZNKSt3__16vectorIN3STL5PointENS_9allocatorIS2_EEE4sizeB8ue170006Ev, symObjAddr: 0x190C, symBinAddr: 0x100002E80, symSize: 0x28 }
  - { offsetInCU: 0x9B1D, offset: 0x9B1D, size: 0x8, addend: 0x0, symName: __ZNSt3__19allocatorIN3STL5PointEE10deallocateB8ue170006EPS2_m, symObjAddr: 0x1934, symBinAddr: 0x100002EA8, symSize: 0x70 }
  - { offsetInCU: 0x9B5D, offset: 0x9B5D, size: 0x8, addend: 0x0, symName: __ZNSt3__117__compressed_pairIPN3STL5PointENS_9allocatorIS2_EEE6secondB8ue170006Ev, symObjAddr: 0x19A4, symBinAddr: 0x100002F18, symSize: 0x24 }
  - { offsetInCU: 0x9B81, offset: 0x9B81, size: 0x8, addend: 0x0, symName: __ZNSt3__122__compressed_pair_elemINS_9allocatorIN3STL5PointEEELi1ELb1EE5__getB8ue170006Ev, symObjAddr: 0x19C8, symBinAddr: 0x100002F3C, symSize: 0x14 }
  - { offsetInCU: 0x9BA5, offset: 0x9BA5, size: 0x8, addend: 0x0, symName: __ZNKSt3__16vectorIN3STL5PointENS_9allocatorIS2_EEE9__end_capB8ue170006Ev, symObjAddr: 0x19DC, symBinAddr: 0x100002F50, symSize: 0x28 }
  - { offsetInCU: 0x9BC9, offset: 0x9BC9, size: 0x8, addend: 0x0, symName: __ZNKSt3__117__compressed_pairIPN3STL5PointENS_9allocatorIS2_EEE5firstB8ue170006Ev, symObjAddr: 0x1A04, symBinAddr: 0x100002F78, symSize: 0x24 }
  - { offsetInCU: 0x9BED, offset: 0x9BED, size: 0x8, addend: 0x0, symName: __ZNKSt3__122__compressed_pair_elemIPN3STL5PointELi0ELb0EE5__getB8ue170006Ev, symObjAddr: 0x1A28, symBinAddr: 0x100002F9C, symSize: 0x14 }
  - { offsetInCU: 0x44, offset: 0x9CE1, size: 0x8, addend: 0x0, symName: __ZN3STL7epsilonE, symObjAddr: 0x116C0, symBinAddr: 0x100018000, symSize: 0x0 }
  - { offsetInCU: 0x6B, offset: 0x9D08, size: 0x8, addend: 0x0, symName: __ZN3STL5Facet6id_cntE, symObjAddr: 0x116C8, symBinAddr: 0x100018008, symSize: 0x0 }
  - { offsetInCU: 0x23F, offset: 0x9EDC, size: 0x8, addend: 0x0, symName: __ZN3STL8read_STLERKNSt3__112basic_stringIcNS0_11char_traitsIcEENS0_9allocatorIcEEEES8_, symObjAddr: 0x0, symBinAddr: 0x100002FB0, symSize: 0x6F0 }
  - { offsetInCU: 0x312, offset: 0x9FAF, size: 0x8, addend: 0x0, symName: __ZN3STLrsERNSt3__113basic_istreamIcNS0_11char_traitsIcEEEERNS_5PointE, symObjAddr: 0xDE4, symBinAddr: 0x100003D5C, symSize: 0x54 }
  - { offsetInCU: 0x34F, offset: 0x9FEC, size: 0x8, addend: 0x0, symName: __ZN3STL15determineNormalERKNS_5PointES2_S2_, symObjAddr: 0xEA8, symBinAddr: 0x100003E20, symSize: 0x12C }
  - { offsetInCU: 0x3C9, offset: 0xA066, size: 0x8, addend: 0x0, symName: __ZN3STL11generate_IdERNSt3__16vectorINS_5FacetENS0_9allocatorIS2_EEEE, symObjAddr: 0x1240, symBinAddr: 0x100004134, symSize: 0x130 }
  - { offsetInCU: 0x429, offset: 0xA0C6, size: 0x8, addend: 0x0, symName: __ZN3STL15check_neighbourERKNS_5FacetES2_, symObjAddr: 0x1490, symBinAddr: 0x10000435C, symSize: 0x3FC }
  - { offsetInCU: 0x4C4, offset: 0xA161, size: 0x8, addend: 0x0, symName: __ZN3STL14generate_LinesERKNSt3__16vectorINS_5FacetENS0_9allocatorIS2_EEEE, symObjAddr: 0x18A0, symBinAddr: 0x10000476C, symSize: 0x5C8 }
  - { offsetInCU: 0x63C, offset: 0xA2D9, size: 0x8, addend: 0x0, symName: __ZN3STL16faceIntersectionERKNS_5FacetERKNS_6CutterE, symObjAddr: 0x219C, symBinAddr: 0x100005068, symSize: 0x4E8 }
  - { offsetInCU: 0x6E2, offset: 0xA37F, size: 0x8, addend: 0x0, symName: __ZN3STL15generate_PointsERKNSt3__16vectorINS_4LineENS0_9allocatorIS2_EEEE, symObjAddr: 0x2944, symBinAddr: 0x100005710, symSize: 0x6B0 }
  - { offsetInCU: 0x7AB, offset: 0xA448, size: 0x8, addend: 0x0, symName: __ZN3STL8check_IDERKNS_4LineES2_, symObjAddr: 0x3048, symBinAddr: 0x100005DEC, symSize: 0xE4 }
  - { offsetInCU: 0x822, offset: 0xA4BF, size: 0x8, addend: 0x0, symName: __ZN3STL10dotProductENS_6VectorES0_, symObjAddr: 0x31AC, symBinAddr: 0x100005F50, symSize: 0x94 }
  - { offsetInCU: 0x861, offset: 0xA4FE, size: 0x8, addend: 0x0, symName: __ZN3STL16lineIntersectionERKNS_4LineES2_, symObjAddr: 0x327C, symBinAddr: 0x100006020, symSize: 0x320 }
  - { offsetInCU: 0x901, offset: 0xA59E, size: 0x8, addend: 0x0, symName: __ZN3STL11find_originERKNSt3__16vectorINS_5PointENS0_9allocatorIS2_EEEEj, symObjAddr: 0x3728, symBinAddr: 0x1000064CC, symSize: 0x19C }
  - { offsetInCU: 0x988, offset: 0xA625, size: 0x8, addend: 0x0, symName: __ZN3STL3cmpERKNS_5PointES2_, symObjAddr: 0x3A80, symBinAddr: 0x1000067FC, symSize: 0xDC }
  - { offsetInCU: 0x9C2, offset: 0xA65F, size: 0x8, addend: 0x0, symName: __ZN3STL11write_gcodeERKNSt3__16vectorINS_5PointENS0_9allocatorIS2_EEEE, symObjAddr: 0x3BA0, symBinAddr: 0x1000068F0, symSize: 0x324 }
  - { offsetInCU: 0xA35, offset: 0xA6D2, size: 0x8, addend: 0x0, symName: __ZN3STLrsERNSt3__113basic_istreamIcNS0_11char_traitsIcEEEERNS_6VectorE, symObjAddr: 0x4580, symBinAddr: 0x10000729C, symSize: 0x48 }
  - { offsetInCU: 0xA72, offset: 0xA70F, size: 0x8, addend: 0x0, symName: __ZN3STLmiERKNS_5PointES2_, symObjAddr: 0x4928, symBinAddr: 0x100007644, symSize: 0xA0 }
  - { offsetInCU: 0xAAF, offset: 0xA74C, size: 0x8, addend: 0x0, symName: __ZN3STLmiERKNS_6VectorES2_, symObjAddr: 0x49C8, symBinAddr: 0x1000076E4, symSize: 0xA0 }
  - { offsetInCU: 0xAEC, offset: 0xA789, size: 0x8, addend: 0x0, symName: __ZN3STL19solve_two_equationsEPA4_d, symObjAddr: 0x5574, symBinAddr: 0x100008290, symSize: 0x418 }
  - { offsetInCU: 0xC87, offset: 0xA924, size: 0x8, addend: 0x0, symName: __ZN3STL12crossProductERKNS_6VectorES2_, symObjAddr: 0x5AF8, symBinAddr: 0x100008814, symSize: 0x10C }
  - { offsetInCU: 0x4DCC, offset: 0xEA69, size: 0x8, addend: 0x0, symName: __ZNSt3__124__put_character_sequenceB8ue170006IcNS_11char_traitsIcEEEERNS_13basic_ostreamIT_T0_EES7_PKS4_m, symObjAddr: 0x6F74, symBinAddr: 0x10000952C, symSize: 0x1F4 }
  - { offsetInCU: 0x96F0, offset: 0x1338D, size: 0x8, addend: 0x0, symName: __ZNSt3__111__sift_downB8ue170006INS_17_ClassicAlgPolicyERPFbRKN3STL5PointES5_EPS3_EEvT1_OT0_NS_15iterator_traitsISA_E15difference_typeESA_, symObjAddr: 0xE03C, symBinAddr: 0x10000FA58, symSize: 0x284 }
  - { offsetInCU: 0x979D, offset: 0x1343A, size: 0x8, addend: 0x0, symName: __ZNSt3__117__floyd_sift_downB8ue170006INS_17_ClassicAlgPolicyERPFbRKN3STL5PointES5_EPS3_EET1_SA_OT0_NS_15iterator_traitsISA_E15difference_typeE, symObjAddr: 0xE580, symBinAddr: 0x10000FF9C, symSize: 0x10C }
  - { offsetInCU: 0x9835, offset: 0x134D2, size: 0x8, addend: 0x0, symName: __ZNSt3__111__introsortINS_17_ClassicAlgPolicyERPFbRKN3STL5PointES5_EPS3_Lb0EEEvT1_SA_T0_NS_15iterator_traitsISA_E15difference_typeEb, symObjAddr: 0xE860, symBinAddr: 0x10001027C, symSize: 0x444 }
  - { offsetInCU: 0x9960, offset: 0x135FD, size: 0x8, addend: 0x0, symName: __ZNSt3__126__insertion_sort_unguardedB8ue170006INS_17_ClassicAlgPolicyERPFbRKN3STL5PointES5_EPS3_EEvT1_SA_T0_, symObjAddr: 0xEF58, symBinAddr: 0x100010974, symSize: 0x184 }
  - { offsetInCU: 0x9A38, offset: 0x136D5, size: 0x8, addend: 0x0, symName: __ZNSt3__131__partition_with_equals_on_leftB8ue170006INS_17_ClassicAlgPolicyEPN3STL5PointERPFbRKS3_S6_EEET0_SA_SA_T1_, symObjAddr: 0xF2FC, symBinAddr: 0x100010D18, symSize: 0x2CC }
  - { offsetInCU: 0x9AF5, offset: 0x13792, size: 0x8, addend: 0x0, symName: __ZNSt3__118__bitset_partitionB8ue170006INS_17_ClassicAlgPolicyEPN3STL5PointERPFbRKS3_S6_EEENS_4pairIT0_bEESB_SB_T1_, symObjAddr: 0xF5C8, symBinAddr: 0x100010FE4, symSize: 0x3D4 }
  - { offsetInCU: 0x9BF1, offset: 0x1388E, size: 0x8, addend: 0x0, symName: __ZNSt3__124__swap_bitmap_pos_withinB8ue170006INS_17_ClassicAlgPolicyEPN3STL5PointEEEvRT0_S6_RyS7_, symObjAddr: 0x10718, symBinAddr: 0x100012134, symSize: 0x1E0 }
  - { offsetInCU: 0x9CBE, offset: 0x1395B, size: 0x8, addend: 0x0, symName: __ZNSt3__132__partition_with_equals_on_rightB8ue170006INS_17_ClassicAlgPolicyEPN3STL5PointERPFbRKS3_S6_EEENS_4pairIT0_bEESB_SB_T1_, symObjAddr: 0xF99C, symBinAddr: 0x1000113B8, symSize: 0x2D4 }
  - { offsetInCU: 0x9D89, offset: 0x13A26, size: 0x8, addend: 0x0, symName: __ZNSt3__127__insertion_sort_incompleteB8ue170006INS_17_ClassicAlgPolicyERPFbRKN3STL5PointES5_EPS3_EEbT1_SA_T0_, symObjAddr: 0xFC70, symBinAddr: 0x10001168C, symSize: 0x394 }
  - { offsetInCU: 0xAD64, offset: 0x14A01, size: 0x8, addend: 0x0, symName: __ZNSt3__1eqB8ue170006IcNS_11char_traitsIcEENS_9allocatorIcEEEEbRKNS_12basic_stringIT_T0_T1_EEPKS6_, symObjAddr: 0x71C, symBinAddr: 0x1000036CC, symSize: 0xC0 }
  - { offsetInCU: 0xBB8F, offset: 0x1582C, size: 0x8, addend: 0x0, symName: __ZNSt3__1lsB8ue170006IcNS_11char_traitsIcEENS_9allocatorIcEEEERNS_13basic_ostreamIT_T0_EES9_RKNS_12basic_stringIS6_S7_T1_EE, symObjAddr: 0x984, symBinAddr: 0x100003934, symSize: 0x4C }
  - { offsetInCU: 0xBBE7, offset: 0x15884, size: 0x8, addend: 0x0, symName: __ZNSt3__1lsB8ue170006INS_11char_traitsIcEEEERNS_13basic_ostreamIcT_EES6_PKc, symObjAddr: 0x9D0, symBinAddr: 0x100003980, symSize: 0x48 }
  - { offsetInCU: 0xBC2D, offset: 0x158CA, size: 0x8, addend: 0x0, symName: __ZNSt3__14endlB8ue170006IcNS_11char_traitsIcEEEERNS_13basic_ostreamIT_T0_EES7_, symObjAddr: 0xA44, symBinAddr: 0x1000039F4, symSize: 0x58 }
  - { offsetInCU: 0xBC6D, offset: 0x1590A, size: 0x8, addend: 0x0, symName: __ZNSt3__17getlineB8ue170006IcNS_11char_traitsIcEENS_9allocatorIcEEEERNS_13basic_istreamIT_T0_EES9_RNS_12basic_stringIS6_S7_T1_EE, symObjAddr: 0xAC8, symBinAddr: 0x100003A78, symSize: 0x5C }
  - { offsetInCU: 0xC060, offset: 0x15CFD, size: 0x8, addend: 0x0, symName: __ZNSt3__14findB8ue170006INS_11__wrap_iterIPN3STL4LineEEES3_EET_S6_S6_RKT0_, symObjAddr: 0x274C, symBinAddr: 0x1000055D0, symSize: 0x78 }
  - { offsetInCU: 0xC0C8, offset: 0x15D65, size: 0x8, addend: 0x0, symName: __ZNSt3__1eqB8ue170006IPN3STL5PointEEEbRKNS_11__wrap_iterIT_EES8_, symObjAddr: 0x359C, symBinAddr: 0x100006340, symSize: 0x48 }
  - { offsetInCU: 0xC10B, offset: 0x15DA8, size: 0x8, addend: 0x0, symName: __ZNSt3__14findB8ue170006INS_11__wrap_iterIPN3STL5PointEEES3_EET_S6_S6_RKT0_, symObjAddr: 0x35E4, symBinAddr: 0x100006388, symSize: 0x78 }
  - { offsetInCU: 0xC173, offset: 0x15E10, size: 0x8, addend: 0x0, symName: __ZNSt3__14sortB8ue170006INS_11__wrap_iterIPN3STL5PointEEEPFbRKS3_S7_EEEvT_SA_T0_, symObjAddr: 0x3A38, symBinAddr: 0x1000067B4, symSize: 0x48 }
  - { offsetInCU: 0xC345, offset: 0x15FE2, size: 0x8, addend: 0x0, symName: __ZNSt3__112__to_addressB8ue170006IKcEEPT_S3_, symObjAddr: 0x6E50, symBinAddr: 0x100009408, symSize: 0x14 }
  - { offsetInCU: 0xC3AD, offset: 0x1604A, size: 0x8, addend: 0x0, symName: __ZNSt3__116__pad_and_outputB8ue170006IcNS_11char_traitsIcEEEENS_19ostreambuf_iteratorIT_T0_EES6_PKS4_S8_S8_RNS_8ios_baseES4_, symObjAddr: 0x7184, symBinAddr: 0x10000973C, symSize: 0x248 }
  - { offsetInCU: 0xC47C, offset: 0x16119, size: 0x8, addend: 0x0, symName: __ZNSt3__19use_facetB8ue170006INS_5ctypeIcEEEERKT_RKNS_6localeE, symObjAddr: 0x77F8, symBinAddr: 0x100009CB8, symSize: 0x2C }
  - { offsetInCU: 0xC953, offset: 0x165F0, size: 0x8, addend: 0x0, symName: __ZNSt3__117__libcpp_allocateB8ue170006Emm, symObjAddr: 0x7C58, symBinAddr: 0x10000A118, symSize: 0x28 }
  - { offsetInCU: 0xC990, offset: 0x1662D, size: 0x8, addend: 0x0, symName: __ZNSt3__121__libcpp_operator_newB8ue170006IJmEEEPvDpT_, symObjAddr: 0x7C94, symBinAddr: 0x10000A154, symSize: 0x24 }
  - { offsetInCU: 0xC9C9, offset: 0x16666, size: 0x8, addend: 0x0, symName: __ZNSt3__17getlineB8ue170006IcNS_11char_traitsIcEENS_9allocatorIcEEEERNS_13basic_istreamIT_T0_EES9_RNS_12basic_stringIS6_S7_T1_EES6_, symObjAddr: 0x7CF0, symBinAddr: 0x10000A1B0, symSize: 0x238 }
  - { offsetInCU: 0xCCC6, offset: 0x16963, size: 0x8, addend: 0x0, symName: __ZNSt3__110__str_findB8ue170006IcmNS_11char_traitsIcEELm18446744073709551615EEET0_PKT_S3_S6_S3_S3_, symObjAddr: 0x834C, symBinAddr: 0x10000A80C, symSize: 0xE4 }
  - { offsetInCU: 0xCD6D, offset: 0x16A0A, size: 0x8, addend: 0x0, symName: __ZNSt3__118__search_substringB8ue170006IcNS_11char_traitsIcEEEEPKT_S5_S5_S5_S5_, symObjAddr: 0x8430, symBinAddr: 0x10000A8F0, symSize: 0x154 }
  - { offsetInCU: 0xCE07, offset: 0x16AA4, size: 0x8, addend: 0x0, symName: __ZNSt3__118__constexpr_memchrB8ue170006IKccEEPT_S3_T0_m, symObjAddr: 0x866C, symBinAddr: 0x10000AB2C, symSize: 0xC0 }
  - { offsetInCU: 0xCE7D, offset: 0x16B1A, size: 0x8, addend: 0x0, symName: __ZNSt3__13maxB8ue170006ImEERKT_S3_S3_, symObjAddr: 0x9024, symBinAddr: 0x10000B4E4, symSize: 0x2C }
  - { offsetInCU: 0xCEC0, offset: 0x16B5D, size: 0x8, addend: 0x0, symName: __ZNSt3__13minB8ue170006ImEERKT_S3_S3_, symObjAddr: 0x9050, symBinAddr: 0x10000B510, symSize: 0x2C }
  - { offsetInCU: 0xD10E, offset: 0x16DAB, size: 0x8, addend: 0x0, symName: __ZNSt3__13minB8ue170006ImNS_6__lessIvvEEEERKT_S5_S5_T0_, symObjAddr: 0x90DC, symBinAddr: 0x10000B59C, symSize: 0x54 }
  - { offsetInCU: 0xD1AF, offset: 0x16E4C, size: 0x8, addend: 0x0, symName: __ZNSt3__120__throw_length_errorB8ue170006EPKc, symObjAddr: 0x91BC, symBinAddr: 0x10000B67C, symSize: 0x64 }
  - { offsetInCU: 0xD1DA, offset: 0x16E77, size: 0x8, addend: 0x0, symName: __ZNSt3__13maxB8ue170006ImNS_6__lessIvvEEEERKT_S5_S5_T0_, symObjAddr: 0x92A0, symBinAddr: 0x10000B760, symSize: 0x54 }
  - { offsetInCU: 0xD234, offset: 0x16ED1, size: 0x8, addend: 0x0, symName: __ZNSt3__119__allocate_at_leastB8ue170006INS_9allocatorIN3STL5FacetEEEEENS_19__allocation_resultINS_16allocator_traitsIT_E7pointerEEERS7_m, symObjAddr: 0x9410, symBinAddr: 0x10000B8D0, symSize: 0x40 }
  - { offsetInCU: 0xD277, offset: 0x16F14, size: 0x8, addend: 0x0, symName: __ZNSt3__142__uninitialized_allocator_move_if_noexceptB8ue170006INS_9allocatorIN3STL5FacetEEENS_16reverse_iteratorIPS3_EES7_S7_EET2_RT_T0_T1_S8_, symObjAddr: 0x95F8, symBinAddr: 0x10000BAB8, symSize: 0x134 }
  - { offsetInCU: 0xD317, offset: 0x16FB4, size: 0x8, addend: 0x0, symName: __ZNSt3__14swapB8ue170006IPN3STL5FacetEEEvRT_S5_, symObjAddr: 0x9778, symBinAddr: 0x10000BC38, symSize: 0x3C }
  - { offsetInCU: 0xD368, offset: 0x17005, size: 0x8, addend: 0x0, symName: __ZNSt3__122__make_exception_guardB8ue170006INS_29_AllocatorDestroyRangeReverseINS_9allocatorIN3STL5FacetEEENS_16reverse_iteratorIPS4_EEEEEENS_28__exception_guard_exceptionsIT_EESB_, symObjAddr: 0x987C, symBinAddr: 0x10000BD3C, symSize: 0x4C }
  - { offsetInCU: 0xD39E, offset: 0x1703B, size: 0x8, addend: 0x0, symName: __ZNSt3__1neB8ue170006IPN3STL5FacetES3_EEbRKNS_16reverse_iteratorIT_EERKNS4_IT0_EE, symObjAddr: 0x990C, symBinAddr: 0x10000BDCC, symSize: 0x48 }
  - { offsetInCU: 0xD3EA, offset: 0x17087, size: 0x8, addend: 0x0, symName: __ZNSt3__112__to_addressB8ue170006INS_16reverse_iteratorIPN3STL5FacetEEEvEEu7__decayIDTclsr19__to_address_helperIT_EE6__callclsr3stdE7declvalIRKS6_EEEEES8_, symObjAddr: 0x9954, symBinAddr: 0x10000BE14, symSize: 0x24 }
  - { offsetInCU: 0xD44A, offset: 0x170E7, size: 0x8, addend: 0x0, symName: __ZNSt3__119__allocator_destroyB8ue170006INS_9allocatorIN3STL5FacetEEENS_16reverse_iteratorINS5_IPS3_EEEES8_EEvRT_T0_T1_, symObjAddr: 0x9C10, symBinAddr: 0x10000C0D0, symSize: 0x70 }
  - { offsetInCU: 0xD4AF, offset: 0x1714C, size: 0x8, addend: 0x0, symName: __ZNSt3__1neB8ue170006INS_16reverse_iteratorIPN3STL5FacetEEES5_EEbRKNS1_IT_EERKNS1_IT0_EE, symObjAddr: 0x9CBC, symBinAddr: 0x10000C17C, symSize: 0x60 }
  - { offsetInCU: 0xD4FB, offset: 0x17198, size: 0x8, addend: 0x0, symName: __ZNSt3__112__to_addressB8ue170006INS_16reverse_iteratorINS1_IPN3STL5FacetEEEEEvEEu7__decayIDTclsr19__to_address_helperIT_EE6__callclsr3stdE7declvalIRKS7_EEEEES9_, symObjAddr: 0x9D1C, symBinAddr: 0x10000C1DC, symSize: 0x24 }
  - { offsetInCU: 0xD55B, offset: 0x171F8, size: 0x8, addend: 0x0, symName: __ZNSt3__113__rewrap_iterB8ue170006INS_11__wrap_iterIPN3STL4LineEEES4_NS_18__unwrap_iter_implIS5_Lb1EEEEET_S8_T0_, symObjAddr: 0xA780, symBinAddr: 0x10000C6A8, symSize: 0x60 }
  - { offsetInCU: 0xD5B0, offset: 0x1724D, size: 0x8, addend: 0x0, symName: __ZNSt3__111__find_implB8ue170006IPN3STL4LineES3_S2_NS_10__identityEEET_S5_T0_RKT1_RT2_, symObjAddr: 0xA7E0, symBinAddr: 0x10000C708, symSize: 0x7C }
  - { offsetInCU: 0xD62A, offset: 0x172C7, size: 0x8, addend: 0x0, symName: __ZNSt3__113__unwrap_iterB8ue170006INS_11__wrap_iterIPN3STL4LineEEENS_18__unwrap_iter_implIS5_Lb1EEELi0EEEDTclsrT0_8__unwrapclsr3stdE7declvalIT_EEEES9_, symObjAddr: 0xA85C, symBinAddr: 0x10000C784, symSize: 0x2C }
  - { offsetInCU: 0xD6C2, offset: 0x1735F, size: 0x8, addend: 0x0, symName: __ZNSt3__112__to_addressB8ue170006INS_11__wrap_iterIPN3STL4LineEEEvEEu7__decayIDTclsr19__to_address_helperIT_EE6__callclsr3stdE7declvalIRKS6_EEEEES8_, symObjAddr: 0xA920, symBinAddr: 0x10000C848, symSize: 0x24 }
  - { offsetInCU: 0xD79E, offset: 0x1743B, size: 0x8, addend: 0x0, symName: __ZNSt3__18__invokeB8ue170006IRNS_10__identityEJRN3STL4LineEEEEDTclclsr3stdE7declvalIT_EEspclsr3stdE7declvalIT0_EEEEOS6_DpOS7_, symObjAddr: 0xA9E8, symBinAddr: 0x10000C8F8, symSize: 0x2C }
  - { offsetInCU: 0xD83F, offset: 0x174DC, size: 0x8, addend: 0x0, symName: __ZNSt3__119__allocate_at_leastB8ue170006INS_9allocatorIN3STL4LineEEEEENS_19__allocation_resultINS_16allocator_traitsIT_E7pointerEEERS7_m, symObjAddr: 0xB1E8, symBinAddr: 0x10000D0F8, symSize: 0x40 }
  - { offsetInCU: 0xD882, offset: 0x1751F, size: 0x8, addend: 0x0, symName: __ZNSt3__142__uninitialized_allocator_move_if_noexceptB8ue170006INS_9allocatorIN3STL4LineEEENS_16reverse_iteratorIPS3_EES7_S7_EET2_RT_T0_T1_S8_, symObjAddr: 0xB3D0, symBinAddr: 0x10000D2E0, symSize: 0x134 }
  - { offsetInCU: 0xD922, offset: 0x175BF, size: 0x8, addend: 0x0, symName: __ZNSt3__14swapB8ue170006IPN3STL4LineEEEvRT_S5_, symObjAddr: 0xB550, symBinAddr: 0x10000D460, symSize: 0x3C }
  - { offsetInCU: 0xD973, offset: 0x17610, size: 0x8, addend: 0x0, symName: __ZNSt3__122__make_exception_guardB8ue170006INS_29_AllocatorDestroyRangeReverseINS_9allocatorIN3STL4LineEEENS_16reverse_iteratorIPS4_EEEEEENS_28__exception_guard_exceptionsIT_EESB_, symObjAddr: 0xB654, symBinAddr: 0x10000D564, symSize: 0x4C }
  - { offsetInCU: 0xD9A9, offset: 0x17646, size: 0x8, addend: 0x0, symName: __ZNSt3__1neB8ue170006IPN3STL4LineES3_EEbRKNS_16reverse_iteratorIT_EERKNS4_IT0_EE, symObjAddr: 0xB6E4, symBinAddr: 0x10000D5F4, symSize: 0x48 }
  - { offsetInCU: 0xD9F5, offset: 0x17692, size: 0x8, addend: 0x0, symName: __ZNSt3__112__to_addressB8ue170006INS_16reverse_iteratorIPN3STL4LineEEEvEEu7__decayIDTclsr19__to_address_helperIT_EE6__callclsr3stdE7declvalIRKS6_EEEEES8_, symObjAddr: 0xB72C, symBinAddr: 0x10000D63C, symSize: 0x24 }
  - { offsetInCU: 0xDA55, offset: 0x176F2, size: 0x8, addend: 0x0, symName: __ZNSt3__119__allocator_destroyB8ue170006INS_9allocatorIN3STL4LineEEENS_16reverse_iteratorINS5_IPS3_EEEES8_EEvRT_T0_T1_, symObjAddr: 0xB9E8, symBinAddr: 0x10000D8F8, symSize: 0x70 }
  - { offsetInCU: 0xDABA, offset: 0x17757, size: 0x8, addend: 0x0, symName: __ZNSt3__1neB8ue170006INS_16reverse_iteratorIPN3STL4LineEEES5_EEbRKNS1_IT_EERKNS1_IT0_EE, symObjAddr: 0xBA94, symBinAddr: 0x10000D9A4, symSize: 0x60 }
  - { offsetInCU: 0xDB06, offset: 0x177A3, size: 0x8, addend: 0x0, symName: __ZNSt3__112__to_addressB8ue170006INS_16reverse_iteratorINS1_IPN3STL4LineEEEEEvEEu7__decayIDTclsr19__to_address_helperIT_EE6__callclsr3stdE7declvalIRKS7_EEEEES9_, symObjAddr: 0xBAF4, symBinAddr: 0x10000DA04, symSize: 0x24 }
  - { offsetInCU: 0xDB66, offset: 0x17803, size: 0x8, addend: 0x0, symName: __ZNSt3__113__rewrap_iterB8ue170006INS_11__wrap_iterIPN3STL5PointEEES4_NS_18__unwrap_iter_implIS5_Lb1EEEEET_S8_T0_, symObjAddr: 0xC538, symBinAddr: 0x10000DF54, symSize: 0x60 }
  - { offsetInCU: 0xDBBB, offset: 0x17858, size: 0x8, addend: 0x0, symName: __ZNSt3__111__find_implB8ue170006IPN3STL5PointES3_S2_NS_10__identityEEET_S5_T0_RKT1_RT2_, symObjAddr: 0xC598, symBinAddr: 0x10000DFB4, symSize: 0x7C }
  - { offsetInCU: 0xDC35, offset: 0x178D2, size: 0x8, addend: 0x0, symName: __ZNSt3__113__unwrap_iterB8ue170006INS_11__wrap_iterIPN3STL5PointEEENS_18__unwrap_iter_implIS5_Lb1EEELi0EEEDTclsrT0_8__unwrapclsr3stdE7declvalIT_EEEES9_, symObjAddr: 0xC614, symBinAddr: 0x10000E030, symSize: 0x2C }
  - { offsetInCU: 0xDCCD, offset: 0x1796A, size: 0x8, addend: 0x0, symName: __ZNSt3__112__to_addressB8ue170006INS_11__wrap_iterIPN3STL5PointEEEvEEu7__decayIDTclsr19__to_address_helperIT_EE6__callclsr3stdE7declvalIRKS6_EEEEES8_, symObjAddr: 0xC6D8, symBinAddr: 0x10000E0F4, symSize: 0x24 }
  - { offsetInCU: 0xDDA9, offset: 0x17A46, size: 0x8, addend: 0x0, symName: __ZNSt3__18__invokeB8ue170006IRNS_10__identityEJRN3STL5PointEEEEDTclclsr3stdE7declvalIT_EEspclsr3stdE7declvalIT0_EEEEOS6_DpOS7_, symObjAddr: 0xC798, symBinAddr: 0x10000E1B4, symSize: 0x2C }
  - { offsetInCU: 0xDDFA, offset: 0x17A97, size: 0x8, addend: 0x0, symName: __ZNSt3__119__allocate_at_leastB8ue170006INS_9allocatorIN3STL5PointEEEEENS_19__allocation_resultINS_16allocator_traitsIT_E7pointerEEERS7_m, symObjAddr: 0xCF78, symBinAddr: 0x10000E994, symSize: 0x40 }
  - { offsetInCU: 0xDE3D, offset: 0x17ADA, size: 0x8, addend: 0x0, symName: __ZNSt3__142__uninitialized_allocator_move_if_noexceptB8ue170006INS_9allocatorIN3STL5PointEEENS_16reverse_iteratorIPS3_EES7_S7_EET2_RT_T0_T1_S8_, symObjAddr: 0xD158, symBinAddr: 0x10000EB74, symSize: 0x134 }
  - { offsetInCU: 0xDEDD, offset: 0x17B7A, size: 0x8, addend: 0x0, symName: __ZNSt3__14swapB8ue170006IPN3STL5PointEEEvRT_S5_, symObjAddr: 0xD2D8, symBinAddr: 0x10000ECF4, symSize: 0x3C }
  - { offsetInCU: 0xDF2E, offset: 0x17BCB, size: 0x8, addend: 0x0, symName: __ZNSt3__122__make_exception_guardB8ue170006INS_29_AllocatorDestroyRangeReverseINS_9allocatorIN3STL5PointEEENS_16reverse_iteratorIPS4_EEEEEENS_28__exception_guard_exceptionsIT_EESB_, symObjAddr: 0xD3C0, symBinAddr: 0x10000EDDC, symSize: 0x4C }
  - { offsetInCU: 0xDF64, offset: 0x17C01, size: 0x8, addend: 0x0, symName: __ZNSt3__1neB8ue170006IPN3STL5PointES3_EEbRKNS_16reverse_iteratorIT_EERKNS4_IT0_EE, symObjAddr: 0xD450, symBinAddr: 0x10000EE6C, symSize: 0x48 }
  - { offsetInCU: 0xDFB0, offset: 0x17C4D, size: 0x8, addend: 0x0, symName: __ZNSt3__112__to_addressB8ue170006INS_16reverse_iteratorIPN3STL5PointEEEvEEu7__decayIDTclsr19__to_address_helperIT_EE6__callclsr3stdE7declvalIRKS6_EEEEES8_, symObjAddr: 0xD498, symBinAddr: 0x10000EEB4, symSize: 0x24 }
  - { offsetInCU: 0xE010, offset: 0x17CAD, size: 0x8, addend: 0x0, symName: __ZNSt3__119__allocator_destroyB8ue170006INS_9allocatorIN3STL5PointEEENS_16reverse_iteratorINS5_IPS3_EEEES8_EEvRT_T0_T1_, symObjAddr: 0xD754, symBinAddr: 0x10000F170, symSize: 0x70 }
  - { offsetInCU: 0xE075, offset: 0x17D12, size: 0x8, addend: 0x0, symName: __ZNSt3__1neB8ue170006INS_16reverse_iteratorIPN3STL5PointEEES5_EEbRKNS1_IT_EERKNS1_IT0_EE, symObjAddr: 0xD800, symBinAddr: 0x10000F21C, symSize: 0x60 }
  - { offsetInCU: 0xE0C1, offset: 0x17D5E, size: 0x8, addend: 0x0, symName: __ZNSt3__112__to_addressB8ue170006INS_16reverse_iteratorINS1_IPN3STL5PointEEEEEvEEu7__decayIDTclsr19__to_address_helperIT_EE6__callclsr3stdE7declvalIRKS7_EEEEES9_, symObjAddr: 0xD860, symBinAddr: 0x10000F27C, symSize: 0x24 }
  - { offsetInCU: 0xE121, offset: 0x17DBE, size: 0x8, addend: 0x0, symName: __ZNSt3__111__sort_implB8ue170006INS_17_ClassicAlgPolicyENS_11__wrap_iterIPN3STL5PointEEEPFbRKS4_S8_EEEvT0_SB_RT1_, symObjAddr: 0xDBE4, symBinAddr: 0x10000F600, symSize: 0x108 }
  - { offsetInCU: 0xE184, offset: 0x17E21, size: 0x8, addend: 0x0, symName: __ZNSt3__123__debug_randomize_rangeB8ue170006INS_17_ClassicAlgPolicyENS_11__wrap_iterIPN3STL5PointEEES6_EEvT0_T1_, symObjAddr: 0xDCEC, symBinAddr: 0x10000F708, symSize: 0x14 }
  - { offsetInCU: 0xE1D6, offset: 0x17E73, size: 0x8, addend: 0x0, symName: __ZNSt3__114__partial_sortB8ue170006INS_17_ClassicAlgPolicyEPFbRKN3STL5PointES5_EPS3_S8_EET1_S9_S9_T2_RT0_, symObjAddr: 0xDD00, symBinAddr: 0x10000F71C, symSize: 0x94 }
  - { offsetInCU: 0xE25E, offset: 0x17EFB, size: 0x8, addend: 0x0, symName: __ZNSt3__115__sort_dispatchB8ue170006INS_17_ClassicAlgPolicyEPN3STL5PointEPFbRKS3_S6_EEEvT0_S9_RT1_, symObjAddr: 0xDD94, symBinAddr: 0x10000F7B0, symSize: 0x64 }
  - { offsetInCU: 0xE2DC, offset: 0x17F79, size: 0x8, addend: 0x0, symName: __ZNSt3__135__check_strict_weak_ordering_sortedB8ue170006IPN3STL5PointEPFbRKS2_S5_EEEvT_S8_RT0_, symObjAddr: 0xDDF8, symBinAddr: 0x10000F814, symSize: 0x18 }
  - { offsetInCU: 0xE41D, offset: 0x180BA, size: 0x8, addend: 0x0, symName: __ZNSt3__123__debug_randomize_rangeB8ue170006INS_17_ClassicAlgPolicyEPN3STL5PointES4_EEvT0_T1_, symObjAddr: 0xDE28, symBinAddr: 0x10000F844, symSize: 0x14 }
  - { offsetInCU: 0xE46F, offset: 0x1810C, size: 0x8, addend: 0x0, symName: __ZNSt3__119__partial_sort_implB8ue170006INS_17_ClassicAlgPolicyERPFbRKN3STL5PointES5_EPS3_S9_EET1_SA_SA_T2_OT0_, symObjAddr: 0xDE3C, symBinAddr: 0x10000F858, symSize: 0x114 }
  - { offsetInCU: 0xE505, offset: 0x181A2, size: 0x8, addend: 0x0, symName: __ZNSt3__111__make_heapB8ue170006INS_17_ClassicAlgPolicyERPFbRKN3STL5PointES5_EPS3_EEvT1_SA_OT0_, symObjAddr: 0xDF50, symBinAddr: 0x10000F96C, symSize: 0xB8 }
  - { offsetInCU: 0xE5A7, offset: 0x18244, size: 0x8, addend: 0x0, symName: __ZNSt3__111__sort_heapB8ue170006INS_17_ClassicAlgPolicyERPFbRKN3STL5PointES5_EPS3_EEvT1_SA_OT0_, symObjAddr: 0xE2C0, symBinAddr: 0x10000FCDC, symSize: 0xA8 }
  - { offsetInCU: 0xE649, offset: 0x182E6, size: 0x8, addend: 0x0, symName: __ZNSt3__19iter_swapB8ue170006IPN3STL5PointES3_EEvT_T0_, symObjAddr: 0xE368, symBinAddr: 0x10000FD84, symSize: 0x2C }
  - { offsetInCU: 0xE691, offset: 0x1832E, size: 0x8, addend: 0x0, symName: __ZNSt3__14swapB8ue170006IN3STL5PointEEEvRT_S4_, symObjAddr: 0xE394, symBinAddr: 0x10000FDB0, symSize: 0x64 }
  - { offsetInCU: 0xE707, offset: 0x183A4, size: 0x8, addend: 0x0, symName: __ZNSt3__110__pop_heapB8ue170006INS_17_ClassicAlgPolicyEPFbRKN3STL5PointES5_EPS3_EEvT1_S9_RT0_NS_15iterator_traitsIS9_E15difference_typeE, symObjAddr: 0xE424, symBinAddr: 0x10000FE40, symSize: 0x15C }
  - { offsetInCU: 0xE7AF, offset: 0x1844C, size: 0x8, addend: 0x0, symName: __ZNSt3__19__sift_upB8ue170006INS_17_ClassicAlgPolicyERPFbRKN3STL5PointES5_EPS3_EEvT1_SA_OT0_NS_15iterator_traitsISA_E15difference_typeE, symObjAddr: 0xE68C, symBinAddr: 0x1000100A8, symSize: 0x180 }
  - { offsetInCU: 0xE84F, offset: 0x184EC, size: 0x8, addend: 0x0, symName: __ZNSt3__17__log2iB8ue170006IlEET_S1_, symObjAddr: 0xE80C, symBinAddr: 0x100010228, symSize: 0x54 }
  - { offsetInCU: 0xE886, offset: 0x18523, size: 0x8, addend: 0x0, symName: __ZNSt3__112__libcpp_clzB8ue170006Em, symObjAddr: 0xECBC, symBinAddr: 0x1000106D8, symSize: 0x1C }
  - { offsetInCU: 0xE8B2, offset: 0x1854F, size: 0x8, addend: 0x0, symName: __ZNSt3__124__sort3_maybe_branchlessB8ue170006INS_17_ClassicAlgPolicyERPFbRKN3STL5PointES5_EPS3_EENS_9enable_ifIXntsr21__use_branchless_sortIT0_T1_EE5valueEvE4typeESC_SC_SC_SB_, symObjAddr: 0xECD8, symBinAddr: 0x1000106F4, symSize: 0x3C }
  - { offsetInCU: 0xE923, offset: 0x185C0, size: 0x8, addend: 0x0, symName: __ZNSt3__124__sort4_maybe_branchlessB8ue170006INS_17_ClassicAlgPolicyERPFbRKN3STL5PointES5_EPS3_EENS_9enable_ifIXntsr21__use_branchless_sortIT0_T1_EE5valueEvE4typeESC_SC_SC_SC_SB_, symObjAddr: 0xED14, symBinAddr: 0x100010730, symSize: 0x44 }
  - { offsetInCU: 0xE9A2, offset: 0x1863F, size: 0x8, addend: 0x0, symName: __ZNSt3__124__sort5_maybe_branchlessB8ue170006INS_17_ClassicAlgPolicyERPFbRKN3STL5PointES5_EPS3_EENS_9enable_ifIXntsr21__use_branchless_sortIT0_T1_EE5valueEvE4typeESC_SC_SC_SC_SC_SB_, symObjAddr: 0xED58, symBinAddr: 0x100010774, symSize: 0x4C }
  - { offsetInCU: 0xEA2F, offset: 0x186CC, size: 0x8, addend: 0x0, symName: __ZNSt3__116__insertion_sortB8ue170006INS_17_ClassicAlgPolicyERPFbRKN3STL5PointES5_EPS3_EEvT1_SA_T0_, symObjAddr: 0xEDA4, symBinAddr: 0x1000107C0, symSize: 0x1B4 }
  - { offsetInCU: 0xEAE2, offset: 0x1877F, size: 0x8, addend: 0x0, symName: __ZNSt3__114__partial_sortB8ue170006INS_17_ClassicAlgPolicyERPFbRKN3STL5PointES5_EPS3_S9_EET1_SA_SA_T2_RT0_, symObjAddr: 0xF0DC, symBinAddr: 0x100010AF8, symSize: 0x94 }
  - { offsetInCU: 0xEB6A, offset: 0x18807, size: 0x8, addend: 0x0, symName: __ZNSt3__17__sort3B8ue170006INS_17_ClassicAlgPolicyERPFbRKN3STL5PointES5_EPS3_EEjT1_SA_SA_T0_, symObjAddr: 0xF170, symBinAddr: 0x100010B8C, symSize: 0x158 }
  - { offsetInCU: 0xEBE9, offset: 0x18886, size: 0x8, addend: 0x0, symName: __ZNSt3__17__sort4B8ue170006INS_17_ClassicAlgPolicyERPFbRKN3STL5PointES5_EPS3_EEvT1_SA_SA_SA_T0_, symObjAddr: 0x1001C, symBinAddr: 0x100011A38, symSize: 0xC4 }
  - { offsetInCU: 0xEC64, offset: 0x18901, size: 0x8, addend: 0x0, symName: __ZNSt3__17__sort5B8ue170006INS_17_ClassicAlgPolicyERPFbRKN3STL5PointES5_EPS3_EEvT1_SA_SA_SA_SA_T0_, symObjAddr: 0x100E0, symBinAddr: 0x100011AFC, symSize: 0xF8 }
  - { offsetInCU: 0xECED, offset: 0x1898A, size: 0x8, addend: 0x0, symName: __ZNSt3__122__populate_left_bitsetB8ue170006IRPFbRKN3STL5PointES4_EPS2_S2_EEvT0_T_RT1_Ry, symObjAddr: 0x101D8, symBinAddr: 0x100011BF4, symSize: 0xAC }
  - { offsetInCU: 0xEDA8, offset: 0x18A45, size: 0x8, addend: 0x0, symName: __ZNSt3__123__populate_right_bitsetB8ue170006IRPFbRKN3STL5PointES4_EPS2_S2_EEvT0_T_RT1_Ry, symObjAddr: 0x10284, symBinAddr: 0x100011CA0, symSize: 0xA4 }
  - { offsetInCU: 0xEE63, offset: 0x18B00, size: 0x8, addend: 0x0, symName: __ZNSt3__117__swap_bitmap_posB8ue170006INS_17_ClassicAlgPolicyEPN3STL5PointEEEvT0_S5_RyS6_, symObjAddr: 0x10328, symBinAddr: 0x100011D44, symSize: 0x100 }
  - { offsetInCU: 0xEF04, offset: 0x18BA1, size: 0x8, addend: 0x0, symName: __ZNSt3__133__bitset_partition_partial_blocksB8ue170006INS_17_ClassicAlgPolicyERPFbRKN3STL5PointES5_EPS3_S3_EEvRT1_SB_T0_RT2_RySF_, symObjAddr: 0x10428, symBinAddr: 0x100011E44, symSize: 0x2F0 }
  - { offsetInCU: 0xF085, offset: 0x18D22, size: 0x8, addend: 0x0, symName: __ZNSt3__19make_pairB8ue170006IRPN3STL5PointERbEENS_4pairINS_18__unwrap_ref_decayIT_E4typeENS7_IT0_E4typeEEEOS8_OSB_, symObjAddr: 0x108F8, symBinAddr: 0x100012314, symSize: 0x38 }
  - { offsetInCU: 0xF0D4, offset: 0x18D71, size: 0x8, addend: 0x0, symName: __ZNSt3__112__libcpp_ctzB8ue170006Ey, symObjAddr: 0x10930, symBinAddr: 0x10001234C, symSize: 0x20 }
  - { offsetInCU: 0xF100, offset: 0x18D9D, size: 0x8, addend: 0x0, symName: __ZNSt3__113__libcpp_blsrB8ue170006Ey, symObjAddr: 0x10950, symBinAddr: 0x10001236C, symSize: 0x2C }
  - { offsetInCU: 0xF12C, offset: 0x18DC9, size: 0x8, addend: 0x0, symName: __ZNSt3__112__libcpp_clzB8ue170006Ey, symObjAddr: 0x109B0, symBinAddr: 0x1000123CC, symSize: 0x1C }
  - { offsetInCU: 0xF484, offset: 0x19121, size: 0x8, addend: 0x0, symName: __ZSt28__throw_bad_array_new_lengthB8ue170006v, symObjAddr: 0x7C24, symBinAddr: 0x10000A0E4, symSize: 0x34 }
  - { offsetInCU: 0xF974, offset: 0x19611, size: 0x8, addend: 0x0, symName: __ZNSt3__16vectorIN3STL5FacetENS_9allocatorIS2_EEE26__swap_out_circular_bufferERNS_14__split_bufferIS2_RS4_EE, symObjAddr: 0x8E58, symBinAddr: 0x10000B318, symSize: 0x110 }
  - { offsetInCU: 0xFB68, offset: 0x19805, size: 0x8, addend: 0x0, symName: __ZNSt3__16vectorIN3STL4LineENS_9allocatorIS2_EEE26__swap_out_circular_bufferERNS_14__split_bufferIS2_RS4_EE, symObjAddr: 0xAE5C, symBinAddr: 0x10000CD6C, symSize: 0x110 }
  - { offsetInCU: 0xFD61, offset: 0x199FE, size: 0x8, addend: 0x0, symName: __ZNSt3__16vectorIN3STL5PointENS_9allocatorIS2_EEE26__swap_out_circular_bufferERNS_14__split_bufferIS2_RS4_EE, symObjAddr: 0xCC04, symBinAddr: 0x10000E620, symSize: 0x110 }
  - { offsetInCU: 0x11B83, offset: 0x1B820, size: 0x8, addend: 0x0, symName: __ZNSt3__16vectorIN3STL5FacetENS_9allocatorIS2_EEEC1B8ue170006Ev, symObjAddr: 0x6F0, symBinAddr: 0x1000036A0, symSize: 0x2C }
  - { offsetInCU: 0x11CCC, offset: 0x1B969, size: 0x8, addend: 0x0, symName: __ZNSt3__114basic_ifstreamIcNS_11char_traitsIcEEEC1ERKNS_12basic_stringIcS2_NS_9allocatorIcEEEEj, symObjAddr: 0x7DC, symBinAddr: 0x10000378C, symSize: 0x17C }
  - { offsetInCU: 0x11D15, offset: 0x1B9B2, size: 0x8, addend: 0x0, symName: __ZNKSt3__114basic_ifstreamIcNS_11char_traitsIcEEE7is_openEv, symObjAddr: 0x958, symBinAddr: 0x100003908, symSize: 0x2C }
  - { offsetInCU: 0x11D3B, offset: 0x1B9D8, size: 0x8, addend: 0x0, symName: __ZNSt3__113basic_ostreamIcNS_11char_traitsIcEEElsB8ue170006EPFRS3_S4_E, symObjAddr: 0xA18, symBinAddr: 0x1000039C8, symSize: 0x2C }
  - { offsetInCU: 0x11D6D, offset: 0x1BA0A, size: 0x8, addend: 0x0, symName: __ZNSt3__112basic_stringIcNS_11char_traitsIcEENS_9allocatorIcEEEC1B8ue170006Ev, symObjAddr: 0xA9C, symBinAddr: 0x100003A4C, symSize: 0x2C }
  - { offsetInCU: 0x11D95, offset: 0x1BA32, size: 0x8, addend: 0x0, symName: __ZNKSt3__19basic_iosIcNS_11char_traitsIcEEEcvPvB8ue170006Ev, symObjAddr: 0xB24, symBinAddr: 0x100003AD4, symSize: 0x4C }
  - { offsetInCU: 0x11DB9, offset: 0x1BA56, size: 0x8, addend: 0x0, symName: __ZN3STL6VectorC1Ev, symObjAddr: 0xB70, symBinAddr: 0x100003B20, symSize: 0x2C }
  - { offsetInCU: 0x11DE1, offset: 0x1BA7E, size: 0x8, addend: 0x0, symName: __ZN3STL5PointC1Ev, symObjAddr: 0xB9C, symBinAddr: 0x100003B4C, symSize: 0x2C }
  - { offsetInCU: 0x11E09, offset: 0x1BAA6, size: 0x8, addend: 0x0, symName: __ZNKSt3__112basic_stringIcNS_11char_traitsIcEENS_9allocatorIcEEE4findB8ue170006EPKcm, symObjAddr: 0xC00, symBinAddr: 0x100003B78, symSize: 0x74 }
  - { offsetInCU: 0x11E4D, offset: 0x1BAEA, size: 0x8, addend: 0x0, symName: __ZNKSt3__112basic_stringIcNS_11char_traitsIcEENS_9allocatorIcEEE6substrB8ue170006Emm, symObjAddr: 0xC74, symBinAddr: 0x100003BEC, symSize: 0x68 }
  - { offsetInCU: 0x11EDF, offset: 0x1BB7C, size: 0x8, addend: 0x0, symName: __ZNSt3__119basic_istringstreamIcNS_11char_traitsIcEENS_9allocatorIcEEEC1B8ue170006ERKNS_12basic_stringIcS2_S4_EEj, symObjAddr: 0xCDC, symBinAddr: 0x100003C54, symSize: 0x108 }
  - { offsetInCU: 0x11F2A, offset: 0x1BBC7, size: 0x8, addend: 0x0, symName: __ZNSt3__119basic_istringstreamIcNS_11char_traitsIcEENS_9allocatorIcEEED1Ev, symObjAddr: 0xE38, symBinAddr: 0x100003DB0, symSize: 0x70 }
  - { offsetInCU: 0x11F56, offset: 0x1BBF3, size: 0x8, addend: 0x0, symName: __ZN3STL6VectorC1ERKS0_, symObjAddr: 0x1000, symBinAddr: 0x100003F4C, symSize: 0x34 }
  - { offsetInCU: 0x11F91, offset: 0x1BC2E, size: 0x8, addend: 0x0, symName: __ZN3STL5PointC1ERKS0_, symObjAddr: 0x1034, symBinAddr: 0x100003F80, symSize: 0x34 }
  - { offsetInCU: 0x11FCC, offset: 0x1BC69, size: 0x8, addend: 0x0, symName: __ZN3STL5FacetC1ENS_6VectorENS_5PointES2_S2_, symObjAddr: 0x1068, symBinAddr: 0x100003FB4, symSize: 0x4C }
  - { offsetInCU: 0x12030, offset: 0x1BCCD, size: 0x8, addend: 0x0, symName: __ZNSt3__16vectorIN3STL5FacetENS_9allocatorIS2_EEE9push_backB8ue170006ERKS2_, symObjAddr: 0x10B4, symBinAddr: 0x100004000, symSize: 0x6C }
  - { offsetInCU: 0x12065, offset: 0x1BD02, size: 0x8, addend: 0x0, symName: __ZNSt3__114basic_ifstreamIcNS_11char_traitsIcEEE5closeEv, symObjAddr: 0x114C, symBinAddr: 0x10000406C, symSize: 0x58 }
  - { offsetInCU: 0x12090, offset: 0x1BD2D, size: 0x8, addend: 0x0, symName: __ZNSt3__114basic_ifstreamIcNS_11char_traitsIcEEED1Ev, symObjAddr: 0x11A4, symBinAddr: 0x1000040C4, symSize: 0x70 }
  - { offsetInCU: 0x120BC, offset: 0x1BD59, size: 0x8, addend: 0x0, symName: __ZNSt3__16vectorIN3STL5FacetENS_9allocatorIS2_EEEixB8ue170006Em, symObjAddr: 0x1398, symBinAddr: 0x100004264, symSize: 0x2C }
  - { offsetInCU: 0x120F2, offset: 0x1BD8F, size: 0x8, addend: 0x0, symName: __ZN3STL5Facet6set_idEv, symObjAddr: 0x13C4, symBinAddr: 0x100004290, symSize: 0xCC }
  - { offsetInCU: 0x12146, offset: 0x1BDE3, size: 0x8, addend: 0x0, symName: __ZN3STL5Facet6inc_IDEv, symObjAddr: 0x188C, symBinAddr: 0x100004758, symSize: 0x14 }
  - { offsetInCU: 0x1215A, offset: 0x1BDF7, size: 0x8, addend: 0x0, symName: __ZNSt3__16vectorIN3STL4LineENS_9allocatorIS2_EEEC1B8ue170006Ev, symObjAddr: 0x1E68, symBinAddr: 0x100004D34, symSize: 0x2C }
  - { offsetInCU: 0x12182, offset: 0x1BE1F, size: 0x8, addend: 0x0, symName: __ZNKSt3__16vectorIN3STL5FacetENS_9allocatorIS2_EEEixB8ue170006Em, symObjAddr: 0x1E94, symBinAddr: 0x100004D60, symSize: 0x2C }
  - { offsetInCU: 0x121B8, offset: 0x1BE55, size: 0x8, addend: 0x0, symName: __ZNK3STL5Facet7getMinZEv, symObjAddr: 0x1EC0, symBinAddr: 0x100004D8C, symSize: 0x108 }
  - { offsetInCU: 0x12217, offset: 0x1BEB4, size: 0x8, addend: 0x0, symName: __ZNK3STL5Facet7getMaxZEv, symObjAddr: 0x1FC8, symBinAddr: 0x100004E94, symSize: 0x108 }
  - { offsetInCU: 0x12276, offset: 0x1BF13, size: 0x8, addend: 0x0, symName: __ZN3STL6VectorC1Eddd, symObjAddr: 0x20D0, symBinAddr: 0x100004F9C, symSize: 0x44 }
  - { offsetInCU: 0x122C8, offset: 0x1BF65, size: 0x8, addend: 0x0, symName: __ZN3STL5PointC1Edddd, symObjAddr: 0x2114, symBinAddr: 0x100004FE0, symSize: 0x4C }
  - { offsetInCU: 0x12337, offset: 0x1BFD4, size: 0x8, addend: 0x0, symName: __ZN3STL6CutterC1ENS_6VectorENS_5PointE, symObjAddr: 0x2160, symBinAddr: 0x10000502C, symSize: 0x3C }
  - { offsetInCU: 0x1237D, offset: 0x1C01A, size: 0x8, addend: 0x0, symName: __ZNK3STL4Line7getDirvEv, symObjAddr: 0x2684, symBinAddr: 0x100005550, symSize: 0x38 }
  - { offsetInCU: 0x123A1, offset: 0x1C03E, size: 0x8, addend: 0x0, symName: __ZNK3STL6Vector5getNxEv, symObjAddr: 0x26BC, symBinAddr: 0x100005588, symSize: 0x18 }
  - { offsetInCU: 0x123C5, offset: 0x1C062, size: 0x8, addend: 0x0, symName: __ZNK3STL6Vector5getNyEv, symObjAddr: 0x26D4, symBinAddr: 0x1000055A0, symSize: 0x18 }
  - { offsetInCU: 0x123E9, offset: 0x1C086, size: 0x8, addend: 0x0, symName: __ZNK3STL6Vector5getNzEv, symObjAddr: 0x26EC, symBinAddr: 0x1000055B8, symSize: 0x18 }
  - { offsetInCU: 0x1240D, offset: 0x1C0AA, size: 0x8, addend: 0x0, symName: __ZNSt3__16vectorIN3STL4LineENS_9allocatorIS2_EEE9push_backB8ue170006ERKS2_, symObjAddr: 0x2824, symBinAddr: 0x100005648, symSize: 0x6C }
  - { offsetInCU: 0x12442, offset: 0x1C0DF, size: 0x8, addend: 0x0, symName: __ZN3STL6Cutter4setZEd, symObjAddr: 0x28BC, symBinAddr: 0x1000056B4, symSize: 0x30 }
  - { offsetInCU: 0x12474, offset: 0x1C111, size: 0x8, addend: 0x0, symName: __ZN3STL6CutterD1Ev, symObjAddr: 0x28EC, symBinAddr: 0x1000056E4, symSize: 0x2C }
  - { offsetInCU: 0x1249C, offset: 0x1C139, size: 0x8, addend: 0x0, symName: __ZNSt3__16vectorIN3STL5PointENS_9allocatorIS2_EEEC1B8ue170006Ev, symObjAddr: 0x2FF4, symBinAddr: 0x100005DC0, symSize: 0x2C }
  - { offsetInCU: 0x124C4, offset: 0x1C161, size: 0x8, addend: 0x0, symName: __ZNKSt3__16vectorIN3STL4LineENS_9allocatorIS2_EEEixB8ue170006Em, symObjAddr: 0x312C, symBinAddr: 0x100005ED0, symSize: 0x2C }
  - { offsetInCU: 0x124FA, offset: 0x1C197, size: 0x8, addend: 0x0, symName: __ZNK3STL4Line8getPointEv, symObjAddr: 0x3158, symBinAddr: 0x100005EFC, symSize: 0x3C }
  - { offsetInCU: 0x1251E, offset: 0x1C1BB, size: 0x8, addend: 0x0, symName: __ZNK3STL5Point4getZEv, symObjAddr: 0x3194, symBinAddr: 0x100005F38, symSize: 0x18 }
  - { offsetInCU: 0x12542, offset: 0x1C1DF, size: 0x8, addend: 0x0, symName: __ZNK3STL6Vector12getMagnitudeEv, symObjAddr: 0x3240, symBinAddr: 0x100005FE4, symSize: 0x3C }
  - { offsetInCU: 0x1256A, offset: 0x1C207, size: 0x8, addend: 0x0, symName: __ZNSt3__16vectorIN3STL5PointENS_9allocatorIS2_EEE5beginB8ue170006Ev, symObjAddr: 0x365C, symBinAddr: 0x100006400, symSize: 0x30 }
  - { offsetInCU: 0x12590, offset: 0x1C22D, size: 0x8, addend: 0x0, symName: __ZNSt3__16vectorIN3STL5PointENS_9allocatorIS2_EEE3endB8ue170006Ev, symObjAddr: 0x368C, symBinAddr: 0x100006430, symSize: 0x30 }
  - { offsetInCU: 0x125B6, offset: 0x1C253, size: 0x8, addend: 0x0, symName: __ZNSt3__16vectorIN3STL5PointENS_9allocatorIS2_EEE9push_backB8ue170006ERKS2_, symObjAddr: 0x36BC, symBinAddr: 0x100006460, symSize: 0x6C }
  - { offsetInCU: 0x125EB, offset: 0x1C288, size: 0x8, addend: 0x0, symName: __ZNSt3__16vectorIN3STL5PointENS_9allocatorIS2_EEEixB8ue170006Em, symObjAddr: 0x38EC, symBinAddr: 0x100006668, symSize: 0x24 }
  - { offsetInCU: 0x12621, offset: 0x1C2BE, size: 0x8, addend: 0x0, symName: __ZN3STL5Point8setAngleERKS0_, symObjAddr: 0x3910, symBinAddr: 0x10000668C, symSize: 0x128 }
  - { offsetInCU: 0x12672, offset: 0x1C30F, size: 0x8, addend: 0x0, symName: __ZNK3STL5Point8getAngleEv, symObjAddr: 0x3B88, symBinAddr: 0x1000068D8, symSize: 0x18 }
  - { offsetInCU: 0x126AF, offset: 0x1C34C, size: 0x8, addend: 0x0, symName: __ZNSt3__114basic_ofstreamIcNS_11char_traitsIcEEEC1EPKcj, symObjAddr: 0x3EC4, symBinAddr: 0x100006C14, symSize: 0x17C }
  - { offsetInCU: 0x126F8, offset: 0x1C395, size: 0x8, addend: 0x0, symName: __ZNKSt3__19basic_iosIcNS_11char_traitsIcEEE4failB8ue170006Ev, symObjAddr: 0x4040, symBinAddr: 0x100006D90, symSize: 0x28 }
  - { offsetInCU: 0x12721, offset: 0x1C3BE, size: 0x8, addend: 0x0, symName: __ZNKSt3__16vectorIN3STL5PointENS_9allocatorIS2_EEEixB8ue170006Em, symObjAddr: 0x409C, symBinAddr: 0x100006DB8, symSize: 0x24 }
  - { offsetInCU: 0x12757, offset: 0x1C3F4, size: 0x8, addend: 0x0, symName: __ZNK3STL5Point4getXEv, symObjAddr: 0x40C0, symBinAddr: 0x100006DDC, symSize: 0x18 }
  - { offsetInCU: 0x1277B, offset: 0x1C418, size: 0x8, addend: 0x0, symName: __ZNK3STL5Point4getYEv, symObjAddr: 0x40D8, symBinAddr: 0x100006DF4, symSize: 0x18 }
  - { offsetInCU: 0x127A4, offset: 0x1C441, size: 0x8, addend: 0x0, symName: __ZNSt3__114basic_ofstreamIcNS_11char_traitsIcEEED1Ev, symObjAddr: 0x40F0, symBinAddr: 0x100006E0C, symSize: 0x70 }
  - { offsetInCU: 0x127D0, offset: 0x1C46D, size: 0x8, addend: 0x0, symName: __ZNK3STL5Facet7getMinXEv, symObjAddr: 0x4160, symBinAddr: 0x100006E7C, symSize: 0x108 }
  - { offsetInCU: 0x1282F, offset: 0x1C4CC, size: 0x8, addend: 0x0, symName: __ZNK3STL5Facet7getMaxXEv, symObjAddr: 0x4268, symBinAddr: 0x100006F84, symSize: 0x108 }
  - { offsetInCU: 0x1288E, offset: 0x1C52B, size: 0x8, addend: 0x0, symName: __ZNK3STL5Facet7getMinYEv, symObjAddr: 0x4370, symBinAddr: 0x10000708C, symSize: 0x108 }
  - { offsetInCU: 0x128ED, offset: 0x1C58A, size: 0x8, addend: 0x0, symName: __ZNK3STL5Facet7getMaxYEv, symObjAddr: 0x4478, symBinAddr: 0x100007194, symSize: 0x108 }
  - { offsetInCU: 0x1294C, offset: 0x1C5E9, size: 0x8, addend: 0x0, symName: __ZN3STL5PointeqERKS0_, symObjAddr: 0x45C8, symBinAddr: 0x1000072E4, symSize: 0xB4 }
  - { offsetInCU: 0x12983, offset: 0x1C620, size: 0x8, addend: 0x0, symName: __ZN3STL4LineeqERKS0_, symObjAddr: 0x467C, symBinAddr: 0x100007398, symSize: 0x1F8 }
  - { offsetInCU: 0x129BA, offset: 0x1C657, size: 0x8, addend: 0x0, symName: __ZN3STL6VectoreqERKS0_, symObjAddr: 0x4874, symBinAddr: 0x100007590, symSize: 0xB4 }
  - { offsetInCU: 0x129F1, offset: 0x1C68E, size: 0x8, addend: 0x0, symName: __ZN3STL4LineC2ERKS0_, symObjAddr: 0x4A68, symBinAddr: 0x100007784, symSize: 0xA8 }
  - { offsetInCU: 0x12A2C, offset: 0x1C6C9, size: 0x8, addend: 0x0, symName: __ZN3STL4LineC1ERKS0_, symObjAddr: 0x4B10, symBinAddr: 0x10000782C, symSize: 0x34 }
  - { offsetInCU: 0x12A67, offset: 0x1C704, size: 0x8, addend: 0x0, symName: __ZN3STL6VectorC2ERKS0_, symObjAddr: 0x4B44, symBinAddr: 0x100007860, symSize: 0x58 }
  - { offsetInCU: 0x12AA2, offset: 0x1C73F, size: 0x8, addend: 0x0, symName: __ZN3STL5PointC2ERKS0_, symObjAddr: 0x4B9C, symBinAddr: 0x1000078B8, symSize: 0x48 }
  - { offsetInCU: 0x12ADD, offset: 0x1C77A, size: 0x8, addend: 0x0, symName: __ZNK3STL4Line5getIDEj, symObjAddr: 0x4BE4, symBinAddr: 0x100007900, symSize: 0x24 }
  - { offsetInCU: 0x12B0F, offset: 0x1C7AC, size: 0x8, addend: 0x0, symName: __ZN3STL4Line5setIDERKNS_5FacetE, symObjAddr: 0x4C08, symBinAddr: 0x100007924, symSize: 0x64 }
  - { offsetInCU: 0x12B46, offset: 0x1C7E3, size: 0x8, addend: 0x0, symName: __ZNK3STL5Facet5getIDEj, symObjAddr: 0x4C6C, symBinAddr: 0x100007988, symSize: 0x24 }
  - { offsetInCU: 0x12B78, offset: 0x1C815, size: 0x8, addend: 0x0, symName: __ZN3STL4Line19setPoint_from_arrayEPA4_dRKNS_5PointE, symObjAddr: 0x4C90, symBinAddr: 0x1000079AC, symSize: 0x28C }
  - { offsetInCU: 0x12BBE, offset: 0x1C85B, size: 0x8, addend: 0x0, symName: __ZN3STL5Point4setXEd, symObjAddr: 0x4F1C, symBinAddr: 0x100007C38, symSize: 0x20 }
  - { offsetInCU: 0x12BF0, offset: 0x1C88D, size: 0x8, addend: 0x0, symName: __ZN3STL5Point4setZEd, symObjAddr: 0x4F3C, symBinAddr: 0x100007C58, symSize: 0x20 }
  - { offsetInCU: 0x12C22, offset: 0x1C8BF, size: 0x8, addend: 0x0, symName: __ZN3STL5Point4setYEd, symObjAddr: 0x4F5C, symBinAddr: 0x100007C78, symSize: 0x20 }
  - { offsetInCU: 0x12C54, offset: 0x1C8F1, size: 0x8, addend: 0x0, symName: __ZN3STL5Point19setPoint_from_arrayEPA4_d, symObjAddr: 0x4F7C, symBinAddr: 0x100007C98, symSize: 0x94 }
  - { offsetInCU: 0x12C8B, offset: 0x1C928, size: 0x8, addend: 0x0, symName: __ZN3STL4Line8setPointENS_5PointE, symObjAddr: 0x5010, symBinAddr: 0x100007D2C, symSize: 0x2C }
  - { offsetInCU: 0x12CC3, offset: 0x1C960, size: 0x8, addend: 0x0, symName: __ZN3STL4Line7setDirvENS_6VectorES1_, symObjAddr: 0x503C, symBinAddr: 0x100007D58, symSize: 0x140 }
  - { offsetInCU: 0x12D0B, offset: 0x1C9A8, size: 0x8, addend: 0x0, symName: __ZN3STL4Line7setDirvENS_6VectorE, symObjAddr: 0x517C, symBinAddr: 0x100007E98, symSize: 0x2C }
  - { offsetInCU: 0x12D43, offset: 0x1C9E0, size: 0x8, addend: 0x0, symName: __ZNK3STL4Line5printEv, symObjAddr: 0x51A8, symBinAddr: 0x100007EC4, symSize: 0x18C }
  - { offsetInCU: 0x12D6B, offset: 0x1CA08, size: 0x8, addend: 0x0, symName: __ZNK3STL5Point5printEv, symObjAddr: 0x5334, symBinAddr: 0x100008050, symSize: 0xD4 }
  - { offsetInCU: 0x12D93, offset: 0x1CA30, size: 0x8, addend: 0x0, symName: __ZNK3STL6Vector5printEv, symObjAddr: 0x5408, symBinAddr: 0x100008124, symSize: 0xB0 }
  - { offsetInCU: 0x12DBB, offset: 0x1CA58, size: 0x8, addend: 0x0, symName: __ZNK3STL5Facet5printEv, symObjAddr: 0x54B8, symBinAddr: 0x1000081D4, symSize: 0xBC }
  - { offsetInCU: 0x12DE3, offset: 0x1CA80, size: 0x8, addend: 0x0, symName: __ZN3STL4LineC1Ev, symObjAddr: 0x598C, symBinAddr: 0x1000086A8, symSize: 0x2C }
  - { offsetInCU: 0x12E0B, offset: 0x1CAA8, size: 0x8, addend: 0x0, symName: __ZNK3STL5Facet9getNormalEv, symObjAddr: 0x59B8, symBinAddr: 0x1000086D4, symSize: 0x38 }
  - { offsetInCU: 0x12E2F, offset: 0x1CACC, size: 0x8, addend: 0x0, symName: __ZNK3STL5Facet10getVertex1Ev, symObjAddr: 0x59F0, symBinAddr: 0x10000870C, symSize: 0x3C }
  - { offsetInCU: 0x12E53, offset: 0x1CAF0, size: 0x8, addend: 0x0, symName: __ZNK3STL6Cutter8getPointEv, symObjAddr: 0x5A2C, symBinAddr: 0x100008748, symSize: 0x3C }
  - { offsetInCU: 0x12E77, offset: 0x1CB14, size: 0x8, addend: 0x0, symName: __ZNK3STL6Cutter9getNormalEv, symObjAddr: 0x5A68, symBinAddr: 0x100008784, symSize: 0x38 }
  - { offsetInCU: 0x12E9B, offset: 0x1CB38, size: 0x8, addend: 0x0, symName: __ZNK3STL4Line9getNormalEv, symObjAddr: 0x5AA0, symBinAddr: 0x1000087BC, symSize: 0x58 }
  - { offsetInCU: 0x12EBF, offset: 0x1CB5C, size: 0x8, addend: 0x0, symName: __ZN3STL6Vector9normalizeEv, symObjAddr: 0x5C04, symBinAddr: 0x100008920, symSize: 0x90 }
  - { offsetInCU: 0x12EF6, offset: 0x1CB93, size: 0x8, addend: 0x0, symName: __ZNK3STL5Facet10getVertex2Ev, symObjAddr: 0x5C94, symBinAddr: 0x1000089B0, symSize: 0x3C }
  - { offsetInCU: 0x12F1A, offset: 0x1CBB7, size: 0x8, addend: 0x0, symName: __ZNK3STL5Facet10getVertex3Ev, symObjAddr: 0x5CD0, symBinAddr: 0x1000089EC, symSize: 0x3C }
  - { offsetInCU: 0x12F3E, offset: 0x1CBDB, size: 0x8, addend: 0x0, symName: __ZN3STL6VectorC2Ev, symObjAddr: 0x5D0C, symBinAddr: 0x100008A28, symSize: 0x24 }
  - { offsetInCU: 0x12F66, offset: 0x1CC03, size: 0x8, addend: 0x0, symName: __ZN3STL5PointC2Ev, symObjAddr: 0x5D30, symBinAddr: 0x100008A4C, symSize: 0x28 }
  - { offsetInCU: 0x12F8E, offset: 0x1CC2B, size: 0x8, addend: 0x0, symName: __ZNSt3__119basic_istringstreamIcNS_11char_traitsIcEENS_9allocatorIcEEED2Ev, symObjAddr: 0x5D6C, symBinAddr: 0x100008A74, symSize: 0x9C }
  - { offsetInCU: 0x12FC6, offset: 0x1CC63, size: 0x8, addend: 0x0, symName: __ZTv0_n24_NSt3__119basic_istringstreamIcNS_11char_traitsIcEENS_9allocatorIcEEED1Ev, symObjAddr: 0x5E08, symBinAddr: 0x100008B10, symSize: 0x28 }
  - { offsetInCU: 0x12FE2, offset: 0x1CC7F, size: 0x8, addend: 0x0, symName: __ZNSt3__115basic_stringbufIcNS_11char_traitsIcEENS_9allocatorIcEEED1Ev, symObjAddr: 0x5E30, symBinAddr: 0x100008B38, symSize: 0x2C }
  - { offsetInCU: 0x1300E, offset: 0x1CCAB, size: 0x8, addend: 0x0, symName: __ZNSt3__115basic_stringbufIcNS_11char_traitsIcEENS_9allocatorIcEEED2Ev, symObjAddr: 0x5E5C, symBinAddr: 0x100008B64, symSize: 0x78 }
  - { offsetInCU: 0x1303A, offset: 0x1CCD7, size: 0x8, addend: 0x0, symName: __ZN3STL5FacetC2ENS_6VectorENS_5PointES2_S2_, symObjAddr: 0x5EE8, symBinAddr: 0x100008BDC, symSize: 0x88 }
  - { offsetInCU: 0x1309E, offset: 0x1CD3B, size: 0x8, addend: 0x0, symName: __ZNSt3__114basic_ifstreamIcNS_11char_traitsIcEEED2Ev, symObjAddr: 0x603C, symBinAddr: 0x100008C64, symSize: 0x9C }
  - { offsetInCU: 0x130D6, offset: 0x1CD73, size: 0x8, addend: 0x0, symName: __ZTv0_n24_NSt3__114basic_ifstreamIcNS_11char_traitsIcEEED1Ev, symObjAddr: 0x60D8, symBinAddr: 0x100008D00, symSize: 0x28 }
  - { offsetInCU: 0x130ED, offset: 0x1CD8A, size: 0x8, addend: 0x0, symName: __ZN3STL6VectorC2Eddd, symObjAddr: 0x6100, symBinAddr: 0x100008D28, symSize: 0x38 }
  - { offsetInCU: 0x1313F, offset: 0x1CDDC, size: 0x8, addend: 0x0, symName: __ZN3STL5PointC2Edddd, symObjAddr: 0x6138, symBinAddr: 0x100008D60, symSize: 0x44 }
  - { offsetInCU: 0x1319F, offset: 0x1CE3C, size: 0x8, addend: 0x0, symName: __ZN3STL6CutterC2ENS_6VectorENS_5PointE, symObjAddr: 0x617C, symBinAddr: 0x100008DA4, symSize: 0x4C }
  - { offsetInCU: 0x131E5, offset: 0x1CE82, size: 0x8, addend: 0x0, symName: __ZN3STL6CutterD2Ev, symObjAddr: 0x6230, symBinAddr: 0x100008DF0, symSize: 0x68 }
  - { offsetInCU: 0x1320D, offset: 0x1CEAA, size: 0x8, addend: 0x0, symName: __ZNSt3__114basic_ofstreamIcNS_11char_traitsIcEEED2Ev, symObjAddr: 0x6298, symBinAddr: 0x100008E58, symSize: 0x9C }
  - { offsetInCU: 0x13245, offset: 0x1CEE2, size: 0x8, addend: 0x0, symName: __ZTv0_n24_NSt3__114basic_ofstreamIcNS_11char_traitsIcEEED1Ev, symObjAddr: 0x6334, symBinAddr: 0x100008EF4, symSize: 0x28 }
  - { offsetInCU: 0x1325C, offset: 0x1CEF9, size: 0x8, addend: 0x0, symName: __ZN3STL4LineC2Ev, symObjAddr: 0x635C, symBinAddr: 0x100008F1C, symSize: 0x74 }
  - { offsetInCU: 0x13284, offset: 0x1CF21, size: 0x8, addend: 0x0, symName: __ZNSt3__16vectorIN3STL5FacetENS_9allocatorIS2_EEEC2B8ue170006Ev, symObjAddr: 0x63D0, symBinAddr: 0x100008F90, symSize: 0x44 }
  - { offsetInCU: 0x132B6, offset: 0x1CF53, size: 0x8, addend: 0x0, symName: __ZNSt3__117__compressed_pairIPN3STL5FacetENS_9allocatorIS2_EEEC1B8ue170006IDnNS_18__default_init_tagEEEOT_OT0_, symObjAddr: 0x6414, symBinAddr: 0x100008FD4, symSize: 0x3C }
  - { offsetInCU: 0x1330C, offset: 0x1CFA9, size: 0x8, addend: 0x0, symName: __ZNSt3__117__compressed_pairIPN3STL5FacetENS_9allocatorIS2_EEEC2B8ue170006IDnNS_18__default_init_tagEEEOT_OT0_, symObjAddr: 0x6450, symBinAddr: 0x100009010, symSize: 0x40 }
  - { offsetInCU: 0x13362, offset: 0x1CFFF, size: 0x8, addend: 0x0, symName: __ZNSt3__122__compressed_pair_elemIPN3STL5FacetELi0ELb0EEC2B8ue170006IDnvEEOT_, symObjAddr: 0x6490, symBinAddr: 0x100009050, symSize: 0x1C }
  - { offsetInCU: 0x133A2, offset: 0x1D03F, size: 0x8, addend: 0x0, symName: __ZNSt3__122__compressed_pair_elemINS_9allocatorIN3STL5FacetEEELi1ELb1EEC2B8ue170006ENS_18__default_init_tagE, symObjAddr: 0x64AC, symBinAddr: 0x10000906C, symSize: 0x2C }
  - { offsetInCU: 0x133D4, offset: 0x1D071, size: 0x8, addend: 0x0, symName: __ZNSt3__19allocatorIN3STL5FacetEEC2B8ue170006Ev, symObjAddr: 0x64D8, symBinAddr: 0x100009098, symSize: 0x2C }
  - { offsetInCU: 0x133FC, offset: 0x1D099, size: 0x8, addend: 0x0, symName: __ZNSt3__116__non_trivial_ifILb1ENS_9allocatorIN3STL5FacetEEEEC2B8ue170006Ev, symObjAddr: 0x6504, symBinAddr: 0x1000090C4, symSize: 0x14 }
  - { offsetInCU: 0x13424, offset: 0x1D0C1, size: 0x8, addend: 0x0, symName: __ZNKSt3__112basic_stringIcNS_11char_traitsIcEENS_9allocatorIcEEE4sizeB8ue170006Ev, symObjAddr: 0x6AFC, symBinAddr: 0x1000090D8, symSize: 0x54 }
  - { offsetInCU: 0x13448, offset: 0x1D0E5, size: 0x8, addend: 0x0, symName: __ZNKSt3__112basic_stringIcNS_11char_traitsIcEENS_9allocatorIcEEE9__is_longB8ue170006Ev, symObjAddr: 0x6B74, symBinAddr: 0x10000912C, symSize: 0x74 }
  - { offsetInCU: 0x1346C, offset: 0x1D109, size: 0x8, addend: 0x0, symName: __ZNKSt3__112basic_stringIcNS_11char_traitsIcEENS_9allocatorIcEEE15__get_long_sizeB8ue170006Ev, symObjAddr: 0x6BE8, symBinAddr: 0x1000091A0, symSize: 0x28 }
  - { offsetInCU: 0x13490, offset: 0x1D12D, size: 0x8, addend: 0x0, symName: __ZNKSt3__112basic_stringIcNS_11char_traitsIcEENS_9allocatorIcEEE16__get_short_sizeB8ue170006Ev, symObjAddr: 0x6C10, symBinAddr: 0x1000091C8, symSize: 0x34 }
  - { offsetInCU: 0x134B4, offset: 0x1D151, size: 0x8, addend: 0x0, symName: __ZNKSt3__117__compressed_pairINS_12basic_stringIcNS_11char_traitsIcEENS_9allocatorIcEEE5__repES5_E5firstB8ue170006Ev, symObjAddr: 0x6C44, symBinAddr: 0x1000091FC, symSize: 0x24 }
  - { offsetInCU: 0x134D8, offset: 0x1D175, size: 0x8, addend: 0x0, symName: __ZNKSt3__122__compressed_pair_elemINS_12basic_stringIcNS_11char_traitsIcEENS_9allocatorIcEEE5__repELi0ELb0EE5__getB8ue170006Ev, symObjAddr: 0x6C68, symBinAddr: 0x100009220, symSize: 0x14 }
  - { offsetInCU: 0x134FC, offset: 0x1D199, size: 0x8, addend: 0x0, symName: __ZNSt3__19basic_iosIcNS_11char_traitsIcEEEC2B8ue170006Ev, symObjAddr: 0x6C7C, symBinAddr: 0x100009234, symSize: 0x44 }
  - { offsetInCU: 0x13524, offset: 0x1D1C1, size: 0x8, addend: 0x0, symName: __ZNSt3__113basic_istreamIcNS_11char_traitsIcEEEC2B8ue170006EPNS_15basic_streambufIcS2_EE, symObjAddr: 0x6CC0, symBinAddr: 0x100009278, symSize: 0x64 }
  - { offsetInCU: 0x13566, offset: 0x1D203, size: 0x8, addend: 0x0, symName: __ZNSt3__113basic_filebufIcNS_11char_traitsIcEEE4openERKNS_12basic_stringIcS2_NS_9allocatorIcEEEEj, symObjAddr: 0x6D24, symBinAddr: 0x1000092DC, symSize: 0x44 }
  - { offsetInCU: 0x135A8, offset: 0x1D245, size: 0x8, addend: 0x0, symName: __ZNSt3__19basic_iosIcNS_11char_traitsIcEEE8setstateB8ue170006Ej, symObjAddr: 0x6D68, symBinAddr: 0x100009320, symSize: 0x2C }
  - { offsetInCU: 0x135DB, offset: 0x1D278, size: 0x8, addend: 0x0, symName: __ZNSt3__18ios_baseC2B8ue170006Ev, symObjAddr: 0x6D94, symBinAddr: 0x10000934C, symSize: 0x24 }
  - { offsetInCU: 0x13603, offset: 0x1D2A0, size: 0x8, addend: 0x0, symName: __ZNSt3__19basic_iosIcNS_11char_traitsIcEEE4initB8ue170006EPNS_15basic_streambufIcS2_EE, symObjAddr: 0x6DB8, symBinAddr: 0x100009370, symSize: 0x44 }
  - { offsetInCU: 0x13638, offset: 0x1D2D5, size: 0x8, addend: 0x0, symName: __ZNSt3__111char_traitsIcE3eofB8ue170006Ev, symObjAddr: 0x6DFC, symBinAddr: 0x1000093B4, symSize: 0x8 }
  - { offsetInCU: 0x1364C, offset: 0x1D2E9, size: 0x8, addend: 0x0, symName: __ZNKSt3__112basic_stringIcNS_11char_traitsIcEENS_9allocatorIcEEE5c_strB8ue170006Ev, symObjAddr: 0x6E04, symBinAddr: 0x1000093BC, symSize: 0x24 }
  - { offsetInCU: 0x13670, offset: 0x1D30D, size: 0x8, addend: 0x0, symName: __ZNKSt3__112basic_stringIcNS_11char_traitsIcEENS_9allocatorIcEEE4dataB8ue170006Ev, symObjAddr: 0x6E28, symBinAddr: 0x1000093E0, symSize: 0x28 }
  - { offsetInCU: 0x13694, offset: 0x1D331, size: 0x8, addend: 0x0, symName: __ZNKSt3__112basic_stringIcNS_11char_traitsIcEENS_9allocatorIcEEE13__get_pointerB8ue170006Ev, symObjAddr: 0x6E64, symBinAddr: 0x10000941C, symSize: 0x54 }
  - { offsetInCU: 0x136B8, offset: 0x1D355, size: 0x8, addend: 0x0, symName: __ZNKSt3__112basic_stringIcNS_11char_traitsIcEENS_9allocatorIcEEE18__get_long_pointerB8ue170006Ev, symObjAddr: 0x6EB8, symBinAddr: 0x100009470, symSize: 0x28 }
  - { offsetInCU: 0x136DC, offset: 0x1D379, size: 0x8, addend: 0x0, symName: __ZNKSt3__112basic_stringIcNS_11char_traitsIcEENS_9allocatorIcEEE19__get_short_pointerB8ue170006Ev, symObjAddr: 0x6EE0, symBinAddr: 0x100009498, symSize: 0x28 }
  - { offsetInCU: 0x13700, offset: 0x1D39D, size: 0x8, addend: 0x0, symName: __ZNSt3__114pointer_traitsIPKcE10pointer_toB8ue170006ERS1_, symObjAddr: 0x6F08, symBinAddr: 0x1000094C0, symSize: 0x14 }
  - { offsetInCU: 0x13723, offset: 0x1D3C0, size: 0x8, addend: 0x0, symName: __ZNSt3__18ios_base8setstateB8ue170006Ej, symObjAddr: 0x6F1C, symBinAddr: 0x1000094D4, symSize: 0x34 }
  - { offsetInCU: 0x13758, offset: 0x1D3F5, size: 0x8, addend: 0x0, symName: __ZNKSt3__113basic_filebufIcNS_11char_traitsIcEEE7is_openEv, symObjAddr: 0x6F50, symBinAddr: 0x100009508, symSize: 0x24 }
  - { offsetInCU: 0x1379D, offset: 0x1D43A, size: 0x8, addend: 0x0, symName: __ZNKSt3__113basic_ostreamIcNS_11char_traitsIcEEE6sentrycvbB8ue170006Ev, symObjAddr: 0x7168, symBinAddr: 0x100009720, symSize: 0x1C }
  - { offsetInCU: 0x137C1, offset: 0x1D45E, size: 0x8, addend: 0x0, symName: __ZNSt3__119ostreambuf_iteratorIcNS_11char_traitsIcEEEC1B8ue170006ERNS_13basic_ostreamIcS2_EE, symObjAddr: 0x73CC, symBinAddr: 0x100009984, symSize: 0x34 }
  - { offsetInCU: 0x137F7, offset: 0x1D494, size: 0x8, addend: 0x0, symName: __ZNKSt3__18ios_base5flagsB8ue170006Ev, symObjAddr: 0x7400, symBinAddr: 0x1000099B8, symSize: 0x18 }
  - { offsetInCU: 0x1381E, offset: 0x1D4BB, size: 0x8, addend: 0x0, symName: __ZNKSt3__19basic_iosIcNS_11char_traitsIcEEE4fillB8ue170006Ev, symObjAddr: 0x7418, symBinAddr: 0x1000099D0, symSize: 0x64 }
  - { offsetInCU: 0x13844, offset: 0x1D4E1, size: 0x8, addend: 0x0, symName: __ZNKSt3__119ostreambuf_iteratorIcNS_11char_traitsIcEEE6failedB8ue170006Ev, symObjAddr: 0x747C, symBinAddr: 0x100009A34, symSize: 0x24 }
  - { offsetInCU: 0x13868, offset: 0x1D505, size: 0x8, addend: 0x0, symName: __ZNKSt3__18ios_base5widthB8ue170006Ev, symObjAddr: 0x74A0, symBinAddr: 0x100009A58, symSize: 0x18 }
  - { offsetInCU: 0x1388F, offset: 0x1D52C, size: 0x8, addend: 0x0, symName: __ZNSt3__115basic_streambufIcNS_11char_traitsIcEEE5sputnB8ue170006EPKcl, symObjAddr: 0x74B8, symBinAddr: 0x100009A70, symSize: 0x3C }
  - { offsetInCU: 0x138CF, offset: 0x1D56C, size: 0x8, addend: 0x0, symName: __ZNSt3__112basic_stringIcNS_11char_traitsIcEENS_9allocatorIcEEEC1B8ue170006Emc, symObjAddr: 0x74F4, symBinAddr: 0x100009AAC, symSize: 0x3C }
  - { offsetInCU: 0x13915, offset: 0x1D5B2, size: 0x8, addend: 0x0, symName: __ZNSt3__18ios_base5widthB8ue170006El, symObjAddr: 0x7530, symBinAddr: 0x100009AE8, symSize: 0x2C }
  - { offsetInCU: 0x1395A, offset: 0x1D5F7, size: 0x8, addend: 0x0, symName: __ZNSt3__112basic_stringIcNS_11char_traitsIcEENS_9allocatorIcEEEC2B8ue170006Emc, symObjAddr: 0x755C, symBinAddr: 0x100009B14, symSize: 0x4C }
  - { offsetInCU: 0x139A0, offset: 0x1D63D, size: 0x8, addend: 0x0, symName: __ZNSt3__119ostreambuf_iteratorIcNS_11char_traitsIcEEEC2B8ue170006ERNS_13basic_ostreamIcS2_EE, symObjAddr: 0x76A0, symBinAddr: 0x100009B60, symSize: 0x68 }
  - { offsetInCU: 0x139D6, offset: 0x1D673, size: 0x8, addend: 0x0, symName: __ZNKSt3__19basic_iosIcNS_11char_traitsIcEEE5rdbufB8ue170006Ev, symObjAddr: 0x7708, symBinAddr: 0x100009BC8, symSize: 0x24 }
  - { offsetInCU: 0x139FC, offset: 0x1D699, size: 0x8, addend: 0x0, symName: __ZNKSt3__18ios_base5rdbufB8ue170006Ev, symObjAddr: 0x772C, symBinAddr: 0x100009BEC, symSize: 0x18 }
  - { offsetInCU: 0x13A20, offset: 0x1D6BD, size: 0x8, addend: 0x0, symName: __ZNSt3__111char_traitsIcE11eq_int_typeB8ue170006Eii, symObjAddr: 0x7744, symBinAddr: 0x100009C04, symSize: 0x28 }
  - { offsetInCU: 0x13A53, offset: 0x1D6F0, size: 0x8, addend: 0x0, symName: __ZNKSt3__19basic_iosIcNS_11char_traitsIcEEE5widenB8ue170006Ec, symObjAddr: 0x776C, symBinAddr: 0x100009C2C, symSize: 0x8C }
  - { offsetInCU: 0x13ABF, offset: 0x1D75C, size: 0x8, addend: 0x0, symName: __ZNKSt3__15ctypeIcE5widenB8ue170006Ec, symObjAddr: 0x7824, symBinAddr: 0x100009CE4, symSize: 0x38 }
  - { offsetInCU: 0x13AF2, offset: 0x1D78F, size: 0x8, addend: 0x0, symName: __ZNSt3__112basic_stringIcNS_11char_traitsIcEENS_9allocatorIcEEEC2B8ue170006Ev, symObjAddr: 0x785C, symBinAddr: 0x100009D1C, symSize: 0x3C }
  - { offsetInCU: 0x13B1A, offset: 0x1D7B7, size: 0x8, addend: 0x0, symName: __ZNSt3__112basic_stringIcNS_11char_traitsIcEENS_9allocatorIcEEE14__default_initB8ue170006Ev, symObjAddr: 0x7898, symBinAddr: 0x100009D58, symSize: 0xB0 }
  - { offsetInCU: 0x13B6A, offset: 0x1D807, size: 0x8, addend: 0x0, symName: __ZNSt3__117__compressed_pairINS_12basic_stringIcNS_11char_traitsIcEENS_9allocatorIcEEE5__repES5_E5firstB8ue170006Ev, symObjAddr: 0x7948, symBinAddr: 0x100009E08, symSize: 0x24 }
  - { offsetInCU: 0x13B8E, offset: 0x1D82B, size: 0x8, addend: 0x0, symName: __ZNSt3__112basic_stringIcNS_11char_traitsIcEENS_9allocatorIcEEE11__recommendB8ue170006Em, symObjAddr: 0x796C, symBinAddr: 0x100009E2C, symSize: 0x9C }
  - { offsetInCU: 0x13BC0, offset: 0x1D85D, size: 0x8, addend: 0x0, symName: __ZNSt3__116allocator_traitsINS_9allocatorIcEEE8allocateB8ue170006ERS2_m, symObjAddr: 0x7A08, symBinAddr: 0x100009EC8, symSize: 0x2C }
  - { offsetInCU: 0x13BF2, offset: 0x1D88F, size: 0x8, addend: 0x0, symName: __ZNSt3__112basic_stringIcNS_11char_traitsIcEENS_9allocatorIcEEE7__allocB8ue170006Ev, symObjAddr: 0x7A34, symBinAddr: 0x100009EF4, symSize: 0x24 }
  - { offsetInCU: 0x13C16, offset: 0x1D8B3, size: 0x8, addend: 0x0, symName: __ZNSt3__112basic_stringIcNS_11char_traitsIcEENS_9allocatorIcEEE16__begin_lifetimeB8ue170006EPcm, symObjAddr: 0x7A58, symBinAddr: 0x100009F18, symSize: 0x14 }
  - { offsetInCU: 0x13C49, offset: 0x1D8E6, size: 0x8, addend: 0x0, symName: __ZNSt3__112basic_stringIcNS_11char_traitsIcEENS_9allocatorIcEEE18__set_long_pointerB8ue170006EPc, symObjAddr: 0x7A6C, symBinAddr: 0x100009F2C, symSize: 0x38 }
  - { offsetInCU: 0x13C7C, offset: 0x1D919, size: 0x8, addend: 0x0, symName: __ZNSt3__112basic_stringIcNS_11char_traitsIcEENS_9allocatorIcEEE14__set_long_capB8ue170006Em, symObjAddr: 0x7AA4, symBinAddr: 0x100009F64, symSize: 0x70 }
  - { offsetInCU: 0x13CAF, offset: 0x1D94C, size: 0x8, addend: 0x0, symName: __ZNSt3__112basic_stringIcNS_11char_traitsIcEENS_9allocatorIcEEE15__set_long_sizeB8ue170006Em, symObjAddr: 0x7B14, symBinAddr: 0x100009FD4, symSize: 0x38 }
  - { offsetInCU: 0x13CE2, offset: 0x1D97F, size: 0x8, addend: 0x0, symName: __ZNSt3__122__compressed_pair_elemINS_12basic_stringIcNS_11char_traitsIcEENS_9allocatorIcEEE5__repELi0ELb0EE5__getB8ue170006Ev, symObjAddr: 0x7B4C, symBinAddr: 0x10000A00C, symSize: 0x14 }
  - { offsetInCU: 0x13D06, offset: 0x1D9A3, size: 0x8, addend: 0x0, symName: __ZNSt3__112basic_stringIcNS_11char_traitsIcEENS_9allocatorIcEEE10__align_itB8ue170006ILm16EEEmm, symObjAddr: 0x7B60, symBinAddr: 0x10000A020, symSize: 0x1C }
  - { offsetInCU: 0x13D34, offset: 0x1D9D1, size: 0x8, addend: 0x0, symName: __ZNSt3__19allocatorIcE8allocateB8ue170006Em, symObjAddr: 0x7B7C, symBinAddr: 0x10000A03C, symSize: 0x84 }
  - { offsetInCU: 0x13D70, offset: 0x1DA0D, size: 0x8, addend: 0x0, symName: __ZNSt3__116allocator_traitsINS_9allocatorIcEEE8max_sizeB8ue170006IS2_vEEmRKS2_, symObjAddr: 0x7C00, symBinAddr: 0x10000A0C0, symSize: 0x24 }
  - { offsetInCU: 0x13D9D, offset: 0x1DA3A, size: 0x8, addend: 0x0, symName: __ZNKSt3__19allocatorIcE8max_sizeB8ue170006Ev, symObjAddr: 0x7C80, symBinAddr: 0x10000A140, symSize: 0x14 }
  - { offsetInCU: 0x13DC1, offset: 0x1DA5E, size: 0x8, addend: 0x0, symName: __ZNSt3__117__compressed_pairINS_12basic_stringIcNS_11char_traitsIcEENS_9allocatorIcEEE5__repES5_E6secondB8ue170006Ev, symObjAddr: 0x7CB8, symBinAddr: 0x10000A178, symSize: 0x24 }
  - { offsetInCU: 0x13DE5, offset: 0x1DA82, size: 0x8, addend: 0x0, symName: __ZNSt3__122__compressed_pair_elemINS_9allocatorIcEELi1ELb1EE5__getB8ue170006Ev, symObjAddr: 0x7CDC, symBinAddr: 0x10000A19C, symSize: 0x14 }
  - { offsetInCU: 0x13E27, offset: 0x1DAC4, size: 0x8, addend: 0x0, symName: __ZNKSt3__113basic_istreamIcNS_11char_traitsIcEEE6sentrycvbB8ue170006Ev, symObjAddr: 0x7F28, symBinAddr: 0x10000A3E8, symSize: 0x1C }
  - { offsetInCU: 0x13E4B, offset: 0x1DAE8, size: 0x8, addend: 0x0, symName: __ZNSt3__112basic_stringIcNS_11char_traitsIcEENS_9allocatorIcEEE5clearB8ue170006Ev, symObjAddr: 0x7F44, symBinAddr: 0x10000A404, symSize: 0x78 }
  - { offsetInCU: 0x13E71, offset: 0x1DB0E, size: 0x8, addend: 0x0, symName: __ZNSt3__115basic_streambufIcNS_11char_traitsIcEEE6sbumpcB8ue170006Ev, symObjAddr: 0x7FBC, symBinAddr: 0x10000A47C, symSize: 0x78 }
  - { offsetInCU: 0x13E95, offset: 0x1DB32, size: 0x8, addend: 0x0, symName: __ZNSt3__111char_traitsIcE12to_char_typeB8ue170006Ei, symObjAddr: 0x8034, symBinAddr: 0x10000A4F4, symSize: 0x18 }
  - { offsetInCU: 0x13EB8, offset: 0x1DB55, size: 0x8, addend: 0x0, symName: __ZNSt3__111char_traitsIcE2eqEcc, symObjAddr: 0x804C, symBinAddr: 0x10000A50C, symSize: 0x28 }
  - { offsetInCU: 0x13EE9, offset: 0x1DB86, size: 0x8, addend: 0x0, symName: __ZNKSt3__112basic_stringIcNS_11char_traitsIcEENS_9allocatorIcEEE8max_sizeB8ue170006Ev, symObjAddr: 0x8074, symBinAddr: 0x10000A534, symSize: 0xAC }
  - { offsetInCU: 0x13F39, offset: 0x1DBD6, size: 0x8, addend: 0x0, symName: __ZNSt3__18ios_base18__setstate_nothrowB8ue170006Ej, symObjAddr: 0x8120, symBinAddr: 0x10000A5E0, symSize: 0x64 }
  - { offsetInCU: 0x13F6C, offset: 0x1DC09, size: 0x8, addend: 0x0, symName: __ZNKSt3__19basic_iosIcNS_11char_traitsIcEEE10exceptionsB8ue170006Ev, symObjAddr: 0x8184, symBinAddr: 0x10000A644, symSize: 0x24 }
  - { offsetInCU: 0x13F90, offset: 0x1DC2D, size: 0x8, addend: 0x0, symName: __ZNSt3__111char_traitsIcE6assignB8ue170006ERcRKc, symObjAddr: 0x81A8, symBinAddr: 0x10000A668, symSize: 0x24 }
  - { offsetInCU: 0x13FC1, offset: 0x1DC5E, size: 0x8, addend: 0x0, symName: __ZNSt3__112basic_stringIcNS_11char_traitsIcEENS_9allocatorIcEEE18__get_long_pointerB8ue170006Ev, symObjAddr: 0x81CC, symBinAddr: 0x10000A68C, symSize: 0x28 }
  - { offsetInCU: 0x13FE5, offset: 0x1DC82, size: 0x8, addend: 0x0, symName: __ZNSt3__112basic_stringIcNS_11char_traitsIcEENS_9allocatorIcEEE19__get_short_pointerB8ue170006Ev, symObjAddr: 0x81F4, symBinAddr: 0x10000A6B4, symSize: 0x28 }
  - { offsetInCU: 0x14009, offset: 0x1DCA6, size: 0x8, addend: 0x0, symName: __ZNSt3__112basic_stringIcNS_11char_traitsIcEENS_9allocatorIcEEE16__set_short_sizeB8ue170006Em, symObjAddr: 0x821C, symBinAddr: 0x10000A6DC, symSize: 0x78 }
  - { offsetInCU: 0x1403C, offset: 0x1DCD9, size: 0x8, addend: 0x0, symName: __ZNSt3__114pointer_traitsIPcE10pointer_toB8ue170006ERc, symObjAddr: 0x8294, symBinAddr: 0x10000A754, symSize: 0x14 }
  - { offsetInCU: 0x1405F, offset: 0x1DCFC, size: 0x8, addend: 0x0, symName: __ZNSt3__111char_traitsIcE11to_int_typeB8ue170006Ec, symObjAddr: 0x82A8, symBinAddr: 0x10000A768, symSize: 0x14 }
  - { offsetInCU: 0x14083, offset: 0x1DD20, size: 0x8, addend: 0x0, symName: __ZNKSt3__112basic_stringIcNS_11char_traitsIcEENS_9allocatorIcEEE7__allocB8ue170006Ev, symObjAddr: 0x82BC, symBinAddr: 0x10000A77C, symSize: 0x24 }
  - { offsetInCU: 0x140A7, offset: 0x1DD44, size: 0x8, addend: 0x0, symName: __ZNSt3__114numeric_limitsImE3maxB8ue170006Ev, symObjAddr: 0x82E0, symBinAddr: 0x10000A7A0, symSize: 0x14 }
  - { offsetInCU: 0x140BB, offset: 0x1DD58, size: 0x8, addend: 0x0, symName: __ZNKSt3__117__compressed_pairINS_12basic_stringIcNS_11char_traitsIcEENS_9allocatorIcEEE5__repES5_E6secondB8ue170006Ev, symObjAddr: 0x82F4, symBinAddr: 0x10000A7B4, symSize: 0x24 }
  - { offsetInCU: 0x140DF, offset: 0x1DD7C, size: 0x8, addend: 0x0, symName: __ZNKSt3__122__compressed_pair_elemINS_9allocatorIcEELi1ELb1EE5__getB8ue170006Ev, symObjAddr: 0x8318, symBinAddr: 0x10000A7D8, symSize: 0x14 }
  - { offsetInCU: 0x14103, offset: 0x1DDA0, size: 0x8, addend: 0x0, symName: __ZNSt3__123__libcpp_numeric_limitsImLb1EE3maxB8ue170006Ev, symObjAddr: 0x832C, symBinAddr: 0x10000A7EC, symSize: 0x8 }
  - { offsetInCU: 0x14117, offset: 0x1DDB4, size: 0x8, addend: 0x0, symName: __ZNKSt3__18ios_base10exceptionsB8ue170006Ev, symObjAddr: 0x8334, symBinAddr: 0x10000A7F4, symSize: 0x18 }
  - { offsetInCU: 0x1413E, offset: 0x1DDDB, size: 0x8, addend: 0x0, symName: __ZNSt3__111char_traitsIcE4findB8ue170006EPKcmRS2_, symObjAddr: 0x8584, symBinAddr: 0x10000AA44, symSize: 0x84 }
  - { offsetInCU: 0x1417C, offset: 0x1DE19, size: 0x8, addend: 0x0, symName: __ZNSt3__111char_traitsIcE7compareB8ue170006EPKcS3_m, symObjAddr: 0x8608, symBinAddr: 0x10000AAC8, symSize: 0x64 }
  - { offsetInCU: 0x141BA, offset: 0x1DE57, size: 0x8, addend: 0x0, symName: __ZNSt3__19allocatorIcEC1B8ue170006Ev, symObjAddr: 0x872C, symBinAddr: 0x10000ABEC, symSize: 0x2C }
  - { offsetInCU: 0x141E2, offset: 0x1DE7F, size: 0x8, addend: 0x0, symName: __ZNSt3__115basic_stringbufIcNS_11char_traitsIcEENS_9allocatorIcEEEC1B8ue170006ERKNS_12basic_stringIcS2_S4_EEj, symObjAddr: 0x8758, symBinAddr: 0x10000AC18, symSize: 0x3C }
  - { offsetInCU: 0x14228, offset: 0x1DEC5, size: 0x8, addend: 0x0, symName: __ZNSt3__115basic_stringbufIcNS_11char_traitsIcEENS_9allocatorIcEEEC2B8ue170006ERKNS_12basic_stringIcS2_S4_EEj, symObjAddr: 0x8794, symBinAddr: 0x10000AC54, symSize: 0xD8 }
  - { offsetInCU: 0x1426E, offset: 0x1DF0B, size: 0x8, addend: 0x0, symName: __ZNKSt3__112basic_stringIcNS_11char_traitsIcEENS_9allocatorIcEEE13get_allocatorB8ue170006Ev, symObjAddr: 0x886C, symBinAddr: 0x10000AD2C, symSize: 0x24 }
  - { offsetInCU: 0x14292, offset: 0x1DF2F, size: 0x8, addend: 0x0, symName: __ZNSt3__112basic_stringIcNS_11char_traitsIcEENS_9allocatorIcEEEC1B8ue170006ERKS4_, symObjAddr: 0x8890, symBinAddr: 0x10000AD50, symSize: 0x34 }
  - { offsetInCU: 0x142C9, offset: 0x1DF66, size: 0x8, addend: 0x0, symName: __ZNSt3__112basic_stringIcNS_11char_traitsIcEENS_9allocatorIcEEEC2B8ue170006ERKS4_, symObjAddr: 0x88C4, symBinAddr: 0x10000AD84, symSize: 0x40 }
  - { offsetInCU: 0x14300, offset: 0x1DF9D, size: 0x8, addend: 0x0, symName: __ZNSt3__117__compressed_pairINS_12basic_stringIcNS_11char_traitsIcEENS_9allocatorIcEEE5__repES5_EC1B8ue170006INS_18__default_init_tagERKS5_EEOT_OT0_, symObjAddr: 0x8904, symBinAddr: 0x10000ADC4, symSize: 0x3C }
  - { offsetInCU: 0x14356, offset: 0x1DFF3, size: 0x8, addend: 0x0, symName: __ZNSt3__117__compressed_pairINS_12basic_stringIcNS_11char_traitsIcEENS_9allocatorIcEEE5__repES5_EC2B8ue170006INS_18__default_init_tagERKS5_EEOT_OT0_, symObjAddr: 0x8940, symBinAddr: 0x10000AE00, symSize: 0x40 }
  - { offsetInCU: 0x143AC, offset: 0x1E049, size: 0x8, addend: 0x0, symName: __ZNSt3__122__compressed_pair_elemINS_9allocatorIcEELi1ELb1EEC2B8ue170006IRKS2_vEEOT_, symObjAddr: 0x8980, symBinAddr: 0x10000AE40, symSize: 0x18 }
  - { offsetInCU: 0x143EC, offset: 0x1E089, size: 0x8, addend: 0x0, symName: __ZNSt3__16vectorIN3STL5FacetENS_9allocatorIS2_EEE9__end_capB8ue170006Ev, symObjAddr: 0x8998, symBinAddr: 0x10000AE58, symSize: 0x28 }
  - { offsetInCU: 0x14410, offset: 0x1E0AD, size: 0x8, addend: 0x0, symName: __ZNSt3__16vectorIN3STL5FacetENS_9allocatorIS2_EEE22__construct_one_at_endB8ue170006IJRKS2_EEEvDpOT_, symObjAddr: 0x89C0, symBinAddr: 0x10000AE80, symSize: 0x98 }
  - { offsetInCU: 0x1445D, offset: 0x1E0FA, size: 0x8, addend: 0x0, symName: __ZNSt3__16vectorIN3STL5FacetENS_9allocatorIS2_EEE21__push_back_slow_pathIRKS2_EEvOT_, symObjAddr: 0x8A58, symBinAddr: 0x10000AF18, symSize: 0xE0 }
  - { offsetInCU: 0x144B9, offset: 0x1E156, size: 0x8, addend: 0x0, symName: __ZNSt3__117__compressed_pairIPN3STL5FacetENS_9allocatorIS2_EEE5firstB8ue170006Ev, symObjAddr: 0x8B38, symBinAddr: 0x10000AFF8, symSize: 0x24 }
  - { offsetInCU: 0x144DD, offset: 0x1E17A, size: 0x8, addend: 0x0, symName: __ZNSt3__122__compressed_pair_elemIPN3STL5FacetELi0ELb0EE5__getB8ue170006Ev, symObjAddr: 0x8B5C, symBinAddr: 0x10000B01C, symSize: 0x14 }
  - { offsetInCU: 0x1451A, offset: 0x1E1B7, size: 0x8, addend: 0x0, symName: __ZNSt3__16vectorIN3STL5FacetENS_9allocatorIS2_EEE21_ConstructTransactionC1B8ue170006ERS5_m, symObjAddr: 0x8B70, symBinAddr: 0x10000B030, symSize: 0x3C }
  - { offsetInCU: 0x14560, offset: 0x1E1FD, size: 0x8, addend: 0x0, symName: __ZNSt3__116allocator_traitsINS_9allocatorIN3STL5FacetEEEE9constructB8ue170006IS3_JRKS3_EvEEvRS4_PT_DpOT0_, symObjAddr: 0x8BAC, symBinAddr: 0x10000B06C, symSize: 0x34 }
  - { offsetInCU: 0x145B6, offset: 0x1E253, size: 0x8, addend: 0x0, symName: __ZNSt3__16vectorIN3STL5FacetENS_9allocatorIS2_EEE21_ConstructTransactionD1B8ue170006Ev, symObjAddr: 0x8BE0, symBinAddr: 0x10000B0A0, symSize: 0x2C }
  - { offsetInCU: 0x145DE, offset: 0x1E27B, size: 0x8, addend: 0x0, symName: __ZNSt3__16vectorIN3STL5FacetENS_9allocatorIS2_EEE21_ConstructTransactionC2B8ue170006ERS5_m, symObjAddr: 0x8C0C, symBinAddr: 0x10000B0CC, symSize: 0x4C }
  - { offsetInCU: 0x14624, offset: 0x1E2C1, size: 0x8, addend: 0x0, symName: __ZNSt3__19allocatorIN3STL5FacetEE9constructB8ue170006IS2_JRKS2_EEEvPT_DpOT0_, symObjAddr: 0x8C58, symBinAddr: 0x10000B118, symSize: 0x30 }
  - { offsetInCU: 0x14678, offset: 0x1E315, size: 0x8, addend: 0x0, symName: __ZN3STL5FacetC1ERKS0_, symObjAddr: 0x8C88, symBinAddr: 0x10000B148, symSize: 0x34 }
  - { offsetInCU: 0x146AC, offset: 0x1E349, size: 0x8, addend: 0x0, symName: __ZN3STL5FacetC2ERKS0_, symObjAddr: 0x8CBC, symBinAddr: 0x10000B17C, symSize: 0x84 }
  - { offsetInCU: 0x146E0, offset: 0x1E37D, size: 0x8, addend: 0x0, symName: __ZNSt3__16vectorIN3STL5FacetENS_9allocatorIS2_EEE21_ConstructTransactionD2B8ue170006Ev, symObjAddr: 0x8D40, symBinAddr: 0x10000B200, symSize: 0x20 }
  - { offsetInCU: 0x14708, offset: 0x1E3A5, size: 0x8, addend: 0x0, symName: __ZNKSt3__16vectorIN3STL5FacetENS_9allocatorIS2_EEE11__recommendB8ue170006Em, symObjAddr: 0x8D60, symBinAddr: 0x10000B220, symSize: 0xB4 }
  - { offsetInCU: 0x1475B, offset: 0x1E3F8, size: 0x8, addend: 0x0, symName: __ZNSt3__114__split_bufferIN3STL5FacetERNS_9allocatorIS2_EEEC1EmmS5_, symObjAddr: 0x8E14, symBinAddr: 0x10000B2D4, symSize: 0x44 }
  - { offsetInCU: 0x147B0, offset: 0x1E44D, size: 0x8, addend: 0x0, symName: __ZNSt3__114__split_bufferIN3STL5FacetERNS_9allocatorIS2_EEED1Ev, symObjAddr: 0x8F68, symBinAddr: 0x10000B428, symSize: 0x2C }
  - { offsetInCU: 0x147DB, offset: 0x1E478, size: 0x8, addend: 0x0, symName: __ZNKSt3__16vectorIN3STL5FacetENS_9allocatorIS2_EEE8max_sizeEv, symObjAddr: 0x8F94, symBinAddr: 0x10000B454, symSize: 0x74 }
  - { offsetInCU: 0x14801, offset: 0x1E49E, size: 0x8, addend: 0x0, symName: __ZNKSt3__16vectorIN3STL5FacetENS_9allocatorIS2_EEE20__throw_length_errorB8ue170006Ev, symObjAddr: 0x9008, symBinAddr: 0x10000B4C8, symSize: 0x1C }
  - { offsetInCU: 0x1482F, offset: 0x1E4CC, size: 0x8, addend: 0x0, symName: __ZNSt3__116allocator_traitsINS_9allocatorIN3STL5FacetEEEE8max_sizeB8ue170006IS4_vEEmRKS4_, symObjAddr: 0x907C, symBinAddr: 0x10000B53C, symSize: 0x24 }
  - { offsetInCU: 0x1485C, offset: 0x1E4F9, size: 0x8, addend: 0x0, symName: __ZNKSt3__16vectorIN3STL5FacetENS_9allocatorIS2_EEE7__allocB8ue170006Ev, symObjAddr: 0x90A0, symBinAddr: 0x10000B560, symSize: 0x28 }
  - { offsetInCU: 0x14880, offset: 0x1E51D, size: 0x8, addend: 0x0, symName: __ZNSt3__114numeric_limitsIlE3maxB8ue170006Ev, symObjAddr: 0x90C8, symBinAddr: 0x10000B588, symSize: 0x14 }
  - { offsetInCU: 0x148A8, offset: 0x1E545, size: 0x8, addend: 0x0, symName: __ZNKSt3__16__lessIvvEclB8ue170006ImmEEbRKT_RKT0_, symObjAddr: 0x9130, symBinAddr: 0x10000B5F0, symSize: 0x34 }
  - { offsetInCU: 0x148FA, offset: 0x1E597, size: 0x8, addend: 0x0, symName: __ZNKSt3__19allocatorIN3STL5FacetEE8max_sizeB8ue170006Ev, symObjAddr: 0x9164, symBinAddr: 0x10000B624, symSize: 0x18 }
  - { offsetInCU: 0x1491E, offset: 0x1E5BB, size: 0x8, addend: 0x0, symName: __ZNKSt3__117__compressed_pairIPN3STL5FacetENS_9allocatorIS2_EEE6secondB8ue170006Ev, symObjAddr: 0x917C, symBinAddr: 0x10000B63C, symSize: 0x24 }
  - { offsetInCU: 0x14942, offset: 0x1E5DF, size: 0x8, addend: 0x0, symName: __ZNKSt3__122__compressed_pair_elemINS_9allocatorIN3STL5FacetEEELi1ELb1EE5__getB8ue170006Ev, symObjAddr: 0x91A0, symBinAddr: 0x10000B660, symSize: 0x14 }
  - { offsetInCU: 0x14966, offset: 0x1E603, size: 0x8, addend: 0x0, symName: __ZNSt3__123__libcpp_numeric_limitsIlLb1EE3maxB8ue170006Ev, symObjAddr: 0x91B4, symBinAddr: 0x10000B674, symSize: 0x8 }
  - { offsetInCU: 0x1497A, offset: 0x1E617, size: 0x8, addend: 0x0, symName: __ZNSt12length_errorC1B8ue170006EPKc, symObjAddr: 0x9220, symBinAddr: 0x10000B6E0, symSize: 0x34 }
  - { offsetInCU: 0x149B0, offset: 0x1E64D, size: 0x8, addend: 0x0, symName: __ZNSt12length_errorC2B8ue170006EPKc, symObjAddr: 0x9254, symBinAddr: 0x10000B714, symSize: 0x4C }
  - { offsetInCU: 0x149E6, offset: 0x1E683, size: 0x8, addend: 0x0, symName: __ZNSt3__114__split_bufferIN3STL5FacetERNS_9allocatorIS2_EEEC2EmmS5_, symObjAddr: 0x92F4, symBinAddr: 0x10000B7B4, symSize: 0xE0 }
  - { offsetInCU: 0x14A58, offset: 0x1E6F5, size: 0x8, addend: 0x0, symName: __ZNSt3__117__compressed_pairIPN3STL5FacetERNS_9allocatorIS2_EEEC1B8ue170006IDnS6_EEOT_OT0_, symObjAddr: 0x93D4, symBinAddr: 0x10000B894, symSize: 0x3C }
  - { offsetInCU: 0x14AAE, offset: 0x1E74B, size: 0x8, addend: 0x0, symName: __ZNSt3__114__split_bufferIN3STL5FacetERNS_9allocatorIS2_EEE7__allocB8ue170006Ev, symObjAddr: 0x9450, symBinAddr: 0x10000B910, symSize: 0x28 }
  - { offsetInCU: 0x14AD2, offset: 0x1E76F, size: 0x8, addend: 0x0, symName: __ZNSt3__114__split_bufferIN3STL5FacetERNS_9allocatorIS2_EEE9__end_capB8ue170006Ev, symObjAddr: 0x9478, symBinAddr: 0x10000B938, symSize: 0x28 }
  - { offsetInCU: 0x14AF6, offset: 0x1E793, size: 0x8, addend: 0x0, symName: __ZNSt3__117__compressed_pairIPN3STL5FacetERNS_9allocatorIS2_EEEC2B8ue170006IDnS6_EEOT_OT0_, symObjAddr: 0x94A0, symBinAddr: 0x10000B960, symSize: 0x48 }
  - { offsetInCU: 0x14B4C, offset: 0x1E7E9, size: 0x8, addend: 0x0, symName: __ZNSt3__122__compressed_pair_elemIRNS_9allocatorIN3STL5FacetEEELi1ELb0EEC2B8ue170006IS5_vEEOT_, symObjAddr: 0x94E8, symBinAddr: 0x10000B9A8, symSize: 0x20 }
  - { offsetInCU: 0x14B8C, offset: 0x1E829, size: 0x8, addend: 0x0, symName: __ZNSt3__19allocatorIN3STL5FacetEE8allocateB8ue170006Em, symObjAddr: 0x9508, symBinAddr: 0x10000B9C8, symSize: 0x8C }
  - { offsetInCU: 0x14BBE, offset: 0x1E85B, size: 0x8, addend: 0x0, symName: __ZNSt3__117__compressed_pairIPN3STL5FacetERNS_9allocatorIS2_EEE6secondB8ue170006Ev, symObjAddr: 0x9594, symBinAddr: 0x10000BA54, symSize: 0x28 }
  - { offsetInCU: 0x14BE2, offset: 0x1E87F, size: 0x8, addend: 0x0, symName: __ZNSt3__122__compressed_pair_elemIRNS_9allocatorIN3STL5FacetEEELi1ELb0EE5__getB8ue170006Ev, symObjAddr: 0x95BC, symBinAddr: 0x10000BA7C, symSize: 0x18 }
  - { offsetInCU: 0x14C06, offset: 0x1E8A3, size: 0x8, addend: 0x0, symName: __ZNSt3__117__compressed_pairIPN3STL5FacetERNS_9allocatorIS2_EEE5firstB8ue170006Ev, symObjAddr: 0x95D4, symBinAddr: 0x10000BA94, symSize: 0x24 }
  - { offsetInCU: 0x14C2A, offset: 0x1E8C7, size: 0x8, addend: 0x0, symName: __ZNSt3__116reverse_iteratorIPN3STL5FacetEEC1B8ue170006ES3_, symObjAddr: 0x972C, symBinAddr: 0x10000BBEC, symSize: 0x34 }
  - { offsetInCU: 0x14C60, offset: 0x1E8FD, size: 0x8, addend: 0x0, symName: __ZNKSt3__116reverse_iteratorIPN3STL5FacetEE4baseB8ue170006Ev, symObjAddr: 0x9760, symBinAddr: 0x10000BC20, symSize: 0x18 }
  - { offsetInCU: 0x14C84, offset: 0x1E921, size: 0x8, addend: 0x0, symName: __ZNKSt3__16vectorIN3STL5FacetENS_9allocatorIS2_EEE14__annotate_newB8ue170006Em, symObjAddr: 0x97B4, symBinAddr: 0x10000BC74, symSize: 0xC8 }
  - { offsetInCU: 0x14CB7, offset: 0x1E954, size: 0x8, addend: 0x0, symName: __ZNSt3__129_AllocatorDestroyRangeReverseINS_9allocatorIN3STL5FacetEEENS_16reverse_iteratorIPS3_EEEC1B8ue170006ERS4_RS7_SA_, symObjAddr: 0x98C8, symBinAddr: 0x10000BD88, symSize: 0x44 }
  - { offsetInCU: 0x14D0C, offset: 0x1E9A9, size: 0x8, addend: 0x0, symName: __ZNKSt3__116reverse_iteratorIPN3STL5FacetEEdeB8ue170006Ev, symObjAddr: 0x9978, symBinAddr: 0x10000BE38, symSize: 0x28 }
  - { offsetInCU: 0x14D3E, offset: 0x1E9DB, size: 0x8, addend: 0x0, symName: __ZNSt3__116reverse_iteratorIPN3STL5FacetEEppB8ue170006Ev, symObjAddr: 0x99A0, symBinAddr: 0x10000BE60, symSize: 0x20 }
  - { offsetInCU: 0x14D62, offset: 0x1E9FF, size: 0x8, addend: 0x0, symName: __ZNSt3__128__exception_guard_exceptionsINS_29_AllocatorDestroyRangeReverseINS_9allocatorIN3STL5FacetEEENS_16reverse_iteratorIPS4_EEEEE10__completeB8ue170006Ev, symObjAddr: 0x99C0, symBinAddr: 0x10000BE80, symSize: 0x1C }
  - { offsetInCU: 0x14D86, offset: 0x1EA23, size: 0x8, addend: 0x0, symName: __ZNSt3__128__exception_guard_exceptionsINS_29_AllocatorDestroyRangeReverseINS_9allocatorIN3STL5FacetEEENS_16reverse_iteratorIPS4_EEEEED1B8ue170006Ev, symObjAddr: 0x99DC, symBinAddr: 0x10000BE9C, symSize: 0x2C }
  - { offsetInCU: 0x14DAE, offset: 0x1EA4B, size: 0x8, addend: 0x0, symName: __ZNSt3__128__exception_guard_exceptionsINS_29_AllocatorDestroyRangeReverseINS_9allocatorIN3STL5FacetEEENS_16reverse_iteratorIPS4_EEEEEC1B8ue170006ES9_, symObjAddr: 0x9A08, symBinAddr: 0x10000BEC8, symSize: 0x34 }
  - { offsetInCU: 0x14DE5, offset: 0x1EA82, size: 0x8, addend: 0x0, symName: __ZNSt3__128__exception_guard_exceptionsINS_29_AllocatorDestroyRangeReverseINS_9allocatorIN3STL5FacetEEENS_16reverse_iteratorIPS4_EEEEEC2B8ue170006ES9_, symObjAddr: 0x9A3C, symBinAddr: 0x10000BEFC, symSize: 0x30 }
  - { offsetInCU: 0x14E1C, offset: 0x1EAB9, size: 0x8, addend: 0x0, symName: __ZNSt3__129_AllocatorDestroyRangeReverseINS_9allocatorIN3STL5FacetEEENS_16reverse_iteratorIPS3_EEEC2B8ue170006ERS4_RS7_SA_, symObjAddr: 0x9A6C, symBinAddr: 0x10000BF2C, symSize: 0x38 }
  - { offsetInCU: 0x14E76, offset: 0x1EB13, size: 0x8, addend: 0x0, symName: __ZNSt3__119__to_address_helperINS_16reverse_iteratorIPN3STL5FacetEEEvE6__callB8ue170006ERKS5_, symObjAddr: 0x9AA4, symBinAddr: 0x10000BF64, symSize: 0x4C }
  - { offsetInCU: 0x14E98, offset: 0x1EB35, size: 0x8, addend: 0x0, symName: __ZNKSt3__116reverse_iteratorIPN3STL5FacetEEptB8ue170006Ev, symObjAddr: 0x9AF0, symBinAddr: 0x10000BFB0, symSize: 0x24 }
  - { offsetInCU: 0x14EBC, offset: 0x1EB59, size: 0x8, addend: 0x0, symName: __ZNSt3__128__exception_guard_exceptionsINS_29_AllocatorDestroyRangeReverseINS_9allocatorIN3STL5FacetEEENS_16reverse_iteratorIPS4_EEEEED2B8ue170006Ev, symObjAddr: 0x9B14, symBinAddr: 0x10000BFD4, symSize: 0x48 }
  - { offsetInCU: 0x14EE4, offset: 0x1EB81, size: 0x8, addend: 0x0, symName: __ZNKSt3__129_AllocatorDestroyRangeReverseINS_9allocatorIN3STL5FacetEEENS_16reverse_iteratorIPS3_EEEclB8ue170006Ev, symObjAddr: 0x9B5C, symBinAddr: 0x10000C01C, symSize: 0xB4 }
  - { offsetInCU: 0x14F09, offset: 0x1EBA6, size: 0x8, addend: 0x0, symName: __ZNSt3__116reverse_iteratorINS0_IPN3STL5FacetEEEEC1B8ue170006ES4_, symObjAddr: 0x9C80, symBinAddr: 0x10000C140, symSize: 0x3C }
  - { offsetInCU: 0x14F3F, offset: 0x1EBDC, size: 0x8, addend: 0x0, symName: __ZNSt3__116reverse_iteratorINS0_IPN3STL5FacetEEEEppB8ue170006Ev, symObjAddr: 0x9D40, symBinAddr: 0x10000C200, symSize: 0x30 }
  - { offsetInCU: 0x14F63, offset: 0x1EC00, size: 0x8, addend: 0x0, symName: __ZNKSt3__116reverse_iteratorINS0_IPN3STL5FacetEEEE4baseB8ue170006Ev, symObjAddr: 0x9D70, symBinAddr: 0x10000C230, symSize: 0x24 }
  - { offsetInCU: 0x14F8C, offset: 0x1EC29, size: 0x8, addend: 0x0, symName: __ZNSt3__119__to_address_helperINS_16reverse_iteratorINS1_IPN3STL5FacetEEEEEvE6__callB8ue170006ERKS6_, symObjAddr: 0x9D94, symBinAddr: 0x10000C254, symSize: 0x4C }
  - { offsetInCU: 0x14FAE, offset: 0x1EC4B, size: 0x8, addend: 0x0, symName: __ZNKSt3__116reverse_iteratorINS0_IPN3STL5FacetEEEEptB8ue170006Ev, symObjAddr: 0x9DE0, symBinAddr: 0x10000C2A0, symSize: 0x24 }
  - { offsetInCU: 0x14FD2, offset: 0x1EC6F, size: 0x8, addend: 0x0, symName: __ZNKSt3__116reverse_iteratorINS0_IPN3STL5FacetEEEEdeB8ue170006Ev, symObjAddr: 0x9E04, symBinAddr: 0x10000C2C4, symSize: 0x34 }
  - { offsetInCU: 0x15004, offset: 0x1ECA1, size: 0x8, addend: 0x0, symName: __ZNSt3__116reverse_iteratorIPN3STL5FacetEEmmB8ue170006Ev, symObjAddr: 0x9E38, symBinAddr: 0x10000C2F8, symSize: 0x20 }
  - { offsetInCU: 0x15028, offset: 0x1ECC5, size: 0x8, addend: 0x0, symName: __ZNSt3__116reverse_iteratorINS0_IPN3STL5FacetEEEEC2B8ue170006ES4_, symObjAddr: 0x9E58, symBinAddr: 0x10000C318, symSize: 0x2C }
  - { offsetInCU: 0x1505E, offset: 0x1ECFB, size: 0x8, addend: 0x0, symName: __ZNSt3__116reverse_iteratorIPN3STL5FacetEEC2B8ue170006ES3_, symObjAddr: 0x9E84, symBinAddr: 0x10000C344, symSize: 0x28 }
  - { offsetInCU: 0x15094, offset: 0x1ED31, size: 0x8, addend: 0x0, symName: __ZNSt3__114__split_bufferIN3STL5FacetERNS_9allocatorIS2_EEED2Ev, symObjAddr: 0x9EAC, symBinAddr: 0x10000C36C, symSize: 0x80 }
  - { offsetInCU: 0x150BF, offset: 0x1ED5C, size: 0x8, addend: 0x0, symName: __ZNSt3__114__split_bufferIN3STL5FacetERNS_9allocatorIS2_EEE5clearB8ue170006Ev, symObjAddr: 0x9F2C, symBinAddr: 0x10000C3EC, symSize: 0x28 }
  - { offsetInCU: 0x150E3, offset: 0x1ED80, size: 0x8, addend: 0x0, symName: __ZNKSt3__114__split_bufferIN3STL5FacetERNS_9allocatorIS2_EEE8capacityB8ue170006Ev, symObjAddr: 0x9F54, symBinAddr: 0x10000C414, symSize: 0x40 }
  - { offsetInCU: 0x15107, offset: 0x1EDA4, size: 0x8, addend: 0x0, symName: __ZNSt3__114__split_bufferIN3STL5FacetERNS_9allocatorIS2_EEE17__destruct_at_endB8ue170006EPS2_, symObjAddr: 0x9F94, symBinAddr: 0x10000C454, symSize: 0x2C }
  - { offsetInCU: 0x15139, offset: 0x1EDD6, size: 0x8, addend: 0x0, symName: __ZNSt3__114__split_bufferIN3STL5FacetERNS_9allocatorIS2_EEE17__destruct_at_endB8ue170006EPS2_NS_17integral_constantIbLb0EEE, symObjAddr: 0x9FC0, symBinAddr: 0x10000C480, symSize: 0x94 }
  - { offsetInCU: 0x15177, offset: 0x1EE14, size: 0x8, addend: 0x0, symName: __ZNKSt3__114__split_bufferIN3STL5FacetERNS_9allocatorIS2_EEE9__end_capB8ue170006Ev, symObjAddr: 0xA054, symBinAddr: 0x10000C514, symSize: 0x28 }
  - { offsetInCU: 0x1519B, offset: 0x1EE38, size: 0x8, addend: 0x0, symName: __ZNKSt3__117__compressed_pairIPN3STL5FacetERNS_9allocatorIS2_EEE5firstB8ue170006Ev, symObjAddr: 0xA07C, symBinAddr: 0x10000C53C, symSize: 0x24 }
  - { offsetInCU: 0x151BF, offset: 0x1EE5C, size: 0x8, addend: 0x0, symName: __ZNSt3__16vectorIN3STL4LineENS_9allocatorIS2_EEEC2B8ue170006Ev, symObjAddr: 0xA0A0, symBinAddr: 0x10000C560, symSize: 0x44 }
  - { offsetInCU: 0x151E7, offset: 0x1EE84, size: 0x8, addend: 0x0, symName: __ZNSt3__117__compressed_pairIPN3STL4LineENS_9allocatorIS2_EEEC1B8ue170006IDnNS_18__default_init_tagEEEOT_OT0_, symObjAddr: 0xA0E4, symBinAddr: 0x10000C5A4, symSize: 0x3C }
  - { offsetInCU: 0x1523D, offset: 0x1EEDA, size: 0x8, addend: 0x0, symName: __ZNSt3__117__compressed_pairIPN3STL4LineENS_9allocatorIS2_EEEC2B8ue170006IDnNS_18__default_init_tagEEEOT_OT0_, symObjAddr: 0xA120, symBinAddr: 0x10000C5E0, symSize: 0x40 }
  - { offsetInCU: 0x15293, offset: 0x1EF30, size: 0x8, addend: 0x0, symName: __ZNSt3__122__compressed_pair_elemIPN3STL4LineELi0ELb0EEC2B8ue170006IDnvEEOT_, symObjAddr: 0xA160, symBinAddr: 0x10000C620, symSize: 0x1C }
  - { offsetInCU: 0x152D3, offset: 0x1EF70, size: 0x8, addend: 0x0, symName: __ZNSt3__122__compressed_pair_elemINS_9allocatorIN3STL4LineEEELi1ELb1EEC2B8ue170006ENS_18__default_init_tagE, symObjAddr: 0xA17C, symBinAddr: 0x10000C63C, symSize: 0x2C }
  - { offsetInCU: 0x15305, offset: 0x1EFA2, size: 0x8, addend: 0x0, symName: __ZNSt3__19allocatorIN3STL4LineEEC2B8ue170006Ev, symObjAddr: 0xA1A8, symBinAddr: 0x10000C668, symSize: 0x2C }
  - { offsetInCU: 0x1532D, offset: 0x1EFCA, size: 0x8, addend: 0x0, symName: __ZNSt3__116__non_trivial_ifILb1ENS_9allocatorIN3STL4LineEEEEC2B8ue170006Ev, symObjAddr: 0xA1D4, symBinAddr: 0x10000C694, symSize: 0x14 }
  - { offsetInCU: 0x15355, offset: 0x1EFF2, size: 0x8, addend: 0x0, symName: __ZNSt3__118__unwrap_iter_implINS_11__wrap_iterIPN3STL4LineEEELb1EE8__rewrapB8ue170006ES5_S4_, symObjAddr: 0xA888, symBinAddr: 0x10000C7B0, symSize: 0x5C }
  - { offsetInCU: 0x15385, offset: 0x1F022, size: 0x8, addend: 0x0, symName: __ZNKSt3__111__wrap_iterIPN3STL4LineEEplB8ue170006El, symObjAddr: 0xA8E4, symBinAddr: 0x10000C80C, symSize: 0x3C }
  - { offsetInCU: 0x153C5, offset: 0x1F062, size: 0x8, addend: 0x0, symName: __ZNSt3__111__wrap_iterIPN3STL4LineEEpLB8ue170006El, symObjAddr: 0xA944, symBinAddr: 0x10000C86C, symSize: 0x30 }
  - { offsetInCU: 0x15401, offset: 0x1F09E, size: 0x8, addend: 0x0, symName: __ZNSt3__119__to_address_helperINS_11__wrap_iterIPN3STL4LineEEEvE6__callB8ue170006ERKS5_, symObjAddr: 0xA974, symBinAddr: 0x10000C89C, symSize: 0x30 }
  - { offsetInCU: 0x15423, offset: 0x1F0C0, size: 0x8, addend: 0x0, symName: __ZNSt3__114pointer_traitsINS_11__wrap_iterIPN3STL4LineEEEE10to_addressB8ue170006ES5_, symObjAddr: 0xA9A4, symBinAddr: 0x10000C8CC, symSize: 0x2C }
  - { offsetInCU: 0x1544F, offset: 0x1F0EC, size: 0x8, addend: 0x0, symName: __ZNKSt3__110__identityclB8ue170006IRN3STL4LineEEEOT_S6_, symObjAddr: 0xAA14, symBinAddr: 0x10000C924, symSize: 0x18 }
  - { offsetInCU: 0x1548A, offset: 0x1F127, size: 0x8, addend: 0x0, symName: __ZNSt3__118__unwrap_iter_implINS_11__wrap_iterIPN3STL4LineEEELb1EE8__unwrapB8ue170006ES5_, symObjAddr: 0xAA2C, symBinAddr: 0x10000C93C, symSize: 0x28 }
  - { offsetInCU: 0x154AC, offset: 0x1F149, size: 0x8, addend: 0x0, symName: __ZNSt3__16vectorIN3STL4LineENS_9allocatorIS2_EEE9__end_capB8ue170006Ev, symObjAddr: 0xAA54, symBinAddr: 0x10000C964, symSize: 0x28 }
  - { offsetInCU: 0x154D0, offset: 0x1F16D, size: 0x8, addend: 0x0, symName: __ZNSt3__16vectorIN3STL4LineENS_9allocatorIS2_EEE22__construct_one_at_endB8ue170006IJRKS2_EEEvDpOT_, symObjAddr: 0xAA7C, symBinAddr: 0x10000C98C, symSize: 0x98 }
  - { offsetInCU: 0x1551D, offset: 0x1F1BA, size: 0x8, addend: 0x0, symName: __ZNSt3__16vectorIN3STL4LineENS_9allocatorIS2_EEE21__push_back_slow_pathIRKS2_EEvOT_, symObjAddr: 0xAB14, symBinAddr: 0x10000CA24, symSize: 0xE0 }
  - { offsetInCU: 0x15579, offset: 0x1F216, size: 0x8, addend: 0x0, symName: __ZNSt3__117__compressed_pairIPN3STL4LineENS_9allocatorIS2_EEE5firstB8ue170006Ev, symObjAddr: 0xABF4, symBinAddr: 0x10000CB04, symSize: 0x24 }
  - { offsetInCU: 0x1559D, offset: 0x1F23A, size: 0x8, addend: 0x0, symName: __ZNSt3__122__compressed_pair_elemIPN3STL4LineELi0ELb0EE5__getB8ue170006Ev, symObjAddr: 0xAC18, symBinAddr: 0x10000CB28, symSize: 0x14 }
  - { offsetInCU: 0x155DA, offset: 0x1F277, size: 0x8, addend: 0x0, symName: __ZNSt3__16vectorIN3STL4LineENS_9allocatorIS2_EEE21_ConstructTransactionC1B8ue170006ERS5_m, symObjAddr: 0xAC2C, symBinAddr: 0x10000CB3C, symSize: 0x3C }
  - { offsetInCU: 0x15620, offset: 0x1F2BD, size: 0x8, addend: 0x0, symName: __ZNSt3__116allocator_traitsINS_9allocatorIN3STL4LineEEEE9constructB8ue170006IS3_JRKS3_EvEEvRS4_PT_DpOT0_, symObjAddr: 0xAC68, symBinAddr: 0x10000CB78, symSize: 0x34 }
  - { offsetInCU: 0x15676, offset: 0x1F313, size: 0x8, addend: 0x0, symName: __ZNSt3__16vectorIN3STL4LineENS_9allocatorIS2_EEE21_ConstructTransactionD1B8ue170006Ev, symObjAddr: 0xAC9C, symBinAddr: 0x10000CBAC, symSize: 0x2C }
  - { offsetInCU: 0x1569E, offset: 0x1F33B, size: 0x8, addend: 0x0, symName: __ZNSt3__16vectorIN3STL4LineENS_9allocatorIS2_EEE21_ConstructTransactionC2B8ue170006ERS5_m, symObjAddr: 0xACC8, symBinAddr: 0x10000CBD8, symSize: 0x4C }
  - { offsetInCU: 0x156E4, offset: 0x1F381, size: 0x8, addend: 0x0, symName: __ZNSt3__19allocatorIN3STL4LineEE9constructB8ue170006IS2_JRKS2_EEEvPT_DpOT0_, symObjAddr: 0xAD14, symBinAddr: 0x10000CC24, symSize: 0x30 }
  - { offsetInCU: 0x15738, offset: 0x1F3D5, size: 0x8, addend: 0x0, symName: __ZNSt3__16vectorIN3STL4LineENS_9allocatorIS2_EEE21_ConstructTransactionD2B8ue170006Ev, symObjAddr: 0xAD44, symBinAddr: 0x10000CC54, symSize: 0x20 }
  - { offsetInCU: 0x15760, offset: 0x1F3FD, size: 0x8, addend: 0x0, symName: __ZNKSt3__16vectorIN3STL4LineENS_9allocatorIS2_EEE11__recommendB8ue170006Em, symObjAddr: 0xAD64, symBinAddr: 0x10000CC74, symSize: 0xB4 }
  - { offsetInCU: 0x157B3, offset: 0x1F450, size: 0x8, addend: 0x0, symName: __ZNSt3__114__split_bufferIN3STL4LineERNS_9allocatorIS2_EEEC1EmmS5_, symObjAddr: 0xAE18, symBinAddr: 0x10000CD28, symSize: 0x44 }
  - { offsetInCU: 0x15808, offset: 0x1F4A5, size: 0x8, addend: 0x0, symName: __ZNSt3__114__split_bufferIN3STL4LineERNS_9allocatorIS2_EEED1Ev, symObjAddr: 0xAF6C, symBinAddr: 0x10000CE7C, symSize: 0x2C }
  - { offsetInCU: 0x15833, offset: 0x1F4D0, size: 0x8, addend: 0x0, symName: __ZNKSt3__16vectorIN3STL4LineENS_9allocatorIS2_EEE8max_sizeEv, symObjAddr: 0xAF98, symBinAddr: 0x10000CEA8, symSize: 0x74 }
  - { offsetInCU: 0x15859, offset: 0x1F4F6, size: 0x8, addend: 0x0, symName: __ZNKSt3__16vectorIN3STL4LineENS_9allocatorIS2_EEE20__throw_length_errorB8ue170006Ev, symObjAddr: 0xB00C, symBinAddr: 0x10000CF1C, symSize: 0x1C }
  - { offsetInCU: 0x15887, offset: 0x1F524, size: 0x8, addend: 0x0, symName: __ZNSt3__116allocator_traitsINS_9allocatorIN3STL4LineEEEE8max_sizeB8ue170006IS4_vEEmRKS4_, symObjAddr: 0xB028, symBinAddr: 0x10000CF38, symSize: 0x24 }
  - { offsetInCU: 0x158B4, offset: 0x1F551, size: 0x8, addend: 0x0, symName: __ZNKSt3__16vectorIN3STL4LineENS_9allocatorIS2_EEE7__allocB8ue170006Ev, symObjAddr: 0xB04C, symBinAddr: 0x10000CF5C, symSize: 0x28 }
  - { offsetInCU: 0x158D8, offset: 0x1F575, size: 0x8, addend: 0x0, symName: __ZNKSt3__19allocatorIN3STL4LineEE8max_sizeB8ue170006Ev, symObjAddr: 0xB074, symBinAddr: 0x10000CF84, symSize: 0x20 }
  - { offsetInCU: 0x158FC, offset: 0x1F599, size: 0x8, addend: 0x0, symName: __ZNKSt3__117__compressed_pairIPN3STL4LineENS_9allocatorIS2_EEE6secondB8ue170006Ev, symObjAddr: 0xB094, symBinAddr: 0x10000CFA4, symSize: 0x24 }
  - { offsetInCU: 0x15920, offset: 0x1F5BD, size: 0x8, addend: 0x0, symName: __ZNKSt3__122__compressed_pair_elemINS_9allocatorIN3STL4LineEEELi1ELb1EE5__getB8ue170006Ev, symObjAddr: 0xB0B8, symBinAddr: 0x10000CFC8, symSize: 0x14 }
  - { offsetInCU: 0x15944, offset: 0x1F5E1, size: 0x8, addend: 0x0, symName: __ZNSt3__114__split_bufferIN3STL4LineERNS_9allocatorIS2_EEEC2EmmS5_, symObjAddr: 0xB0CC, symBinAddr: 0x10000CFDC, symSize: 0xE0 }
  - { offsetInCU: 0x159B6, offset: 0x1F653, size: 0x8, addend: 0x0, symName: __ZNSt3__117__compressed_pairIPN3STL4LineERNS_9allocatorIS2_EEEC1B8ue170006IDnS6_EEOT_OT0_, symObjAddr: 0xB1AC, symBinAddr: 0x10000D0BC, symSize: 0x3C }
  - { offsetInCU: 0x15A0C, offset: 0x1F6A9, size: 0x8, addend: 0x0, symName: __ZNSt3__114__split_bufferIN3STL4LineERNS_9allocatorIS2_EEE7__allocB8ue170006Ev, symObjAddr: 0xB228, symBinAddr: 0x10000D138, symSize: 0x28 }
  - { offsetInCU: 0x15A30, offset: 0x1F6CD, size: 0x8, addend: 0x0, symName: __ZNSt3__114__split_bufferIN3STL4LineERNS_9allocatorIS2_EEE9__end_capB8ue170006Ev, symObjAddr: 0xB250, symBinAddr: 0x10000D160, symSize: 0x28 }
  - { offsetInCU: 0x15A54, offset: 0x1F6F1, size: 0x8, addend: 0x0, symName: __ZNSt3__117__compressed_pairIPN3STL4LineERNS_9allocatorIS2_EEEC2B8ue170006IDnS6_EEOT_OT0_, symObjAddr: 0xB278, symBinAddr: 0x10000D188, symSize: 0x48 }
  - { offsetInCU: 0x15AAA, offset: 0x1F747, size: 0x8, addend: 0x0, symName: __ZNSt3__122__compressed_pair_elemIRNS_9allocatorIN3STL4LineEEELi1ELb0EEC2B8ue170006IS5_vEEOT_, symObjAddr: 0xB2C0, symBinAddr: 0x10000D1D0, symSize: 0x20 }
  - { offsetInCU: 0x15AEA, offset: 0x1F787, size: 0x8, addend: 0x0, symName: __ZNSt3__19allocatorIN3STL4LineEE8allocateB8ue170006Em, symObjAddr: 0xB2E0, symBinAddr: 0x10000D1F0, symSize: 0x8C }
  - { offsetInCU: 0x15B1C, offset: 0x1F7B9, size: 0x8, addend: 0x0, symName: __ZNSt3__117__compressed_pairIPN3STL4LineERNS_9allocatorIS2_EEE6secondB8ue170006Ev, symObjAddr: 0xB36C, symBinAddr: 0x10000D27C, symSize: 0x28 }
  - { offsetInCU: 0x15B40, offset: 0x1F7DD, size: 0x8, addend: 0x0, symName: __ZNSt3__122__compressed_pair_elemIRNS_9allocatorIN3STL4LineEEELi1ELb0EE5__getB8ue170006Ev, symObjAddr: 0xB394, symBinAddr: 0x10000D2A4, symSize: 0x18 }
  - { offsetInCU: 0x15B64, offset: 0x1F801, size: 0x8, addend: 0x0, symName: __ZNSt3__117__compressed_pairIPN3STL4LineERNS_9allocatorIS2_EEE5firstB8ue170006Ev, symObjAddr: 0xB3AC, symBinAddr: 0x10000D2BC, symSize: 0x24 }
  - { offsetInCU: 0x15B88, offset: 0x1F825, size: 0x8, addend: 0x0, symName: __ZNSt3__116reverse_iteratorIPN3STL4LineEEC1B8ue170006ES3_, symObjAddr: 0xB504, symBinAddr: 0x10000D414, symSize: 0x34 }
  - { offsetInCU: 0x15BBE, offset: 0x1F85B, size: 0x8, addend: 0x0, symName: __ZNKSt3__116reverse_iteratorIPN3STL4LineEE4baseB8ue170006Ev, symObjAddr: 0xB538, symBinAddr: 0x10000D448, symSize: 0x18 }
  - { offsetInCU: 0x15BE2, offset: 0x1F87F, size: 0x8, addend: 0x0, symName: __ZNKSt3__16vectorIN3STL4LineENS_9allocatorIS2_EEE14__annotate_newB8ue170006Em, symObjAddr: 0xB58C, symBinAddr: 0x10000D49C, symSize: 0xC8 }
  - { offsetInCU: 0x15C15, offset: 0x1F8B2, size: 0x8, addend: 0x0, symName: __ZNSt3__129_AllocatorDestroyRangeReverseINS_9allocatorIN3STL4LineEEENS_16reverse_iteratorIPS3_EEEC1B8ue170006ERS4_RS7_SA_, symObjAddr: 0xB6A0, symBinAddr: 0x10000D5B0, symSize: 0x44 }
  - { offsetInCU: 0x15C6A, offset: 0x1F907, size: 0x8, addend: 0x0, symName: __ZNKSt3__116reverse_iteratorIPN3STL4LineEEdeB8ue170006Ev, symObjAddr: 0xB750, symBinAddr: 0x10000D660, symSize: 0x28 }
  - { offsetInCU: 0x15C9C, offset: 0x1F939, size: 0x8, addend: 0x0, symName: __ZNSt3__116reverse_iteratorIPN3STL4LineEEppB8ue170006Ev, symObjAddr: 0xB778, symBinAddr: 0x10000D688, symSize: 0x20 }
  - { offsetInCU: 0x15CC0, offset: 0x1F95D, size: 0x8, addend: 0x0, symName: __ZNSt3__128__exception_guard_exceptionsINS_29_AllocatorDestroyRangeReverseINS_9allocatorIN3STL4LineEEENS_16reverse_iteratorIPS4_EEEEE10__completeB8ue170006Ev, symObjAddr: 0xB798, symBinAddr: 0x10000D6A8, symSize: 0x1C }
  - { offsetInCU: 0x15CE4, offset: 0x1F981, size: 0x8, addend: 0x0, symName: __ZNSt3__128__exception_guard_exceptionsINS_29_AllocatorDestroyRangeReverseINS_9allocatorIN3STL4LineEEENS_16reverse_iteratorIPS4_EEEEED1B8ue170006Ev, symObjAddr: 0xB7B4, symBinAddr: 0x10000D6C4, symSize: 0x2C }
  - { offsetInCU: 0x15D0C, offset: 0x1F9A9, size: 0x8, addend: 0x0, symName: __ZNSt3__128__exception_guard_exceptionsINS_29_AllocatorDestroyRangeReverseINS_9allocatorIN3STL4LineEEENS_16reverse_iteratorIPS4_EEEEEC1B8ue170006ES9_, symObjAddr: 0xB7E0, symBinAddr: 0x10000D6F0, symSize: 0x34 }
  - { offsetInCU: 0x15D43, offset: 0x1F9E0, size: 0x8, addend: 0x0, symName: __ZNSt3__128__exception_guard_exceptionsINS_29_AllocatorDestroyRangeReverseINS_9allocatorIN3STL4LineEEENS_16reverse_iteratorIPS4_EEEEEC2B8ue170006ES9_, symObjAddr: 0xB814, symBinAddr: 0x10000D724, symSize: 0x30 }
  - { offsetInCU: 0x15D7A, offset: 0x1FA17, size: 0x8, addend: 0x0, symName: __ZNSt3__129_AllocatorDestroyRangeReverseINS_9allocatorIN3STL4LineEEENS_16reverse_iteratorIPS3_EEEC2B8ue170006ERS4_RS7_SA_, symObjAddr: 0xB844, symBinAddr: 0x10000D754, symSize: 0x38 }
  - { offsetInCU: 0x15DD4, offset: 0x1FA71, size: 0x8, addend: 0x0, symName: __ZNSt3__119__to_address_helperINS_16reverse_iteratorIPN3STL4LineEEEvE6__callB8ue170006ERKS5_, symObjAddr: 0xB87C, symBinAddr: 0x10000D78C, symSize: 0x4C }
  - { offsetInCU: 0x15DF6, offset: 0x1FA93, size: 0x8, addend: 0x0, symName: __ZNKSt3__116reverse_iteratorIPN3STL4LineEEptB8ue170006Ev, symObjAddr: 0xB8C8, symBinAddr: 0x10000D7D8, symSize: 0x24 }
  - { offsetInCU: 0x15E1A, offset: 0x1FAB7, size: 0x8, addend: 0x0, symName: __ZNSt3__128__exception_guard_exceptionsINS_29_AllocatorDestroyRangeReverseINS_9allocatorIN3STL4LineEEENS_16reverse_iteratorIPS4_EEEEED2B8ue170006Ev, symObjAddr: 0xB8EC, symBinAddr: 0x10000D7FC, symSize: 0x48 }
  - { offsetInCU: 0x15E42, offset: 0x1FADF, size: 0x8, addend: 0x0, symName: __ZNKSt3__129_AllocatorDestroyRangeReverseINS_9allocatorIN3STL4LineEEENS_16reverse_iteratorIPS3_EEEclB8ue170006Ev, symObjAddr: 0xB934, symBinAddr: 0x10000D844, symSize: 0xB4 }
  - { offsetInCU: 0x15E67, offset: 0x1FB04, size: 0x8, addend: 0x0, symName: __ZNSt3__116reverse_iteratorINS0_IPN3STL4LineEEEEC1B8ue170006ES4_, symObjAddr: 0xBA58, symBinAddr: 0x10000D968, symSize: 0x3C }
  - { offsetInCU: 0x15E9D, offset: 0x1FB3A, size: 0x8, addend: 0x0, symName: __ZNSt3__116reverse_iteratorINS0_IPN3STL4LineEEEEppB8ue170006Ev, symObjAddr: 0xBB18, symBinAddr: 0x10000DA28, symSize: 0x30 }
  - { offsetInCU: 0x15EC1, offset: 0x1FB5E, size: 0x8, addend: 0x0, symName: __ZNKSt3__116reverse_iteratorINS0_IPN3STL4LineEEEE4baseB8ue170006Ev, symObjAddr: 0xBB48, symBinAddr: 0x10000DA58, symSize: 0x24 }
  - { offsetInCU: 0x15EEA, offset: 0x1FB87, size: 0x8, addend: 0x0, symName: __ZNSt3__119__to_address_helperINS_16reverse_iteratorINS1_IPN3STL4LineEEEEEvE6__callB8ue170006ERKS6_, symObjAddr: 0xBB6C, symBinAddr: 0x10000DA7C, symSize: 0x4C }
  - { offsetInCU: 0x15F0C, offset: 0x1FBA9, size: 0x8, addend: 0x0, symName: __ZNKSt3__116reverse_iteratorINS0_IPN3STL4LineEEEEptB8ue170006Ev, symObjAddr: 0xBBB8, symBinAddr: 0x10000DAC8, symSize: 0x24 }
  - { offsetInCU: 0x15F30, offset: 0x1FBCD, size: 0x8, addend: 0x0, symName: __ZNKSt3__116reverse_iteratorINS0_IPN3STL4LineEEEEdeB8ue170006Ev, symObjAddr: 0xBBDC, symBinAddr: 0x10000DAEC, symSize: 0x34 }
  - { offsetInCU: 0x15F62, offset: 0x1FBFF, size: 0x8, addend: 0x0, symName: __ZNSt3__116reverse_iteratorIPN3STL4LineEEmmB8ue170006Ev, symObjAddr: 0xBC10, symBinAddr: 0x10000DB20, symSize: 0x20 }
  - { offsetInCU: 0x15F86, offset: 0x1FC23, size: 0x8, addend: 0x0, symName: __ZNSt3__116reverse_iteratorINS0_IPN3STL4LineEEEEC2B8ue170006ES4_, symObjAddr: 0xBC30, symBinAddr: 0x10000DB40, symSize: 0x2C }
  - { offsetInCU: 0x15FBC, offset: 0x1FC59, size: 0x8, addend: 0x0, symName: __ZNSt3__116reverse_iteratorIPN3STL4LineEEC2B8ue170006ES3_, symObjAddr: 0xBC5C, symBinAddr: 0x10000DB6C, symSize: 0x28 }
  - { offsetInCU: 0x15FF2, offset: 0x1FC8F, size: 0x8, addend: 0x0, symName: __ZNSt3__114__split_bufferIN3STL4LineERNS_9allocatorIS2_EEED2Ev, symObjAddr: 0xBC84, symBinAddr: 0x10000DB94, symSize: 0x80 }
  - { offsetInCU: 0x1601D, offset: 0x1FCBA, size: 0x8, addend: 0x0, symName: __ZNSt3__114__split_bufferIN3STL4LineERNS_9allocatorIS2_EEE5clearB8ue170006Ev, symObjAddr: 0xBD04, symBinAddr: 0x10000DC14, symSize: 0x28 }
  - { offsetInCU: 0x16041, offset: 0x1FCDE, size: 0x8, addend: 0x0, symName: __ZNKSt3__114__split_bufferIN3STL4LineERNS_9allocatorIS2_EEE8capacityB8ue170006Ev, symObjAddr: 0xBD2C, symBinAddr: 0x10000DC3C, symSize: 0x40 }
  - { offsetInCU: 0x16065, offset: 0x1FD02, size: 0x8, addend: 0x0, symName: __ZNSt3__114__split_bufferIN3STL4LineERNS_9allocatorIS2_EEE17__destruct_at_endB8ue170006EPS2_, symObjAddr: 0xBD6C, symBinAddr: 0x10000DC7C, symSize: 0x2C }
  - { offsetInCU: 0x16097, offset: 0x1FD34, size: 0x8, addend: 0x0, symName: __ZNSt3__114__split_bufferIN3STL4LineERNS_9allocatorIS2_EEE17__destruct_at_endB8ue170006EPS2_NS_17integral_constantIbLb0EEE, symObjAddr: 0xBD98, symBinAddr: 0x10000DCA8, symSize: 0x94 }
  - { offsetInCU: 0x160D5, offset: 0x1FD72, size: 0x8, addend: 0x0, symName: __ZNKSt3__114__split_bufferIN3STL4LineERNS_9allocatorIS2_EEE9__end_capB8ue170006Ev, symObjAddr: 0xBE2C, symBinAddr: 0x10000DD3C, symSize: 0x28 }
  - { offsetInCU: 0x160F9, offset: 0x1FD96, size: 0x8, addend: 0x0, symName: __ZNKSt3__117__compressed_pairIPN3STL4LineERNS_9allocatorIS2_EEE5firstB8ue170006Ev, symObjAddr: 0xBE54, symBinAddr: 0x10000DD64, symSize: 0x24 }
  - { offsetInCU: 0x1611D, offset: 0x1FDBA, size: 0x8, addend: 0x0, symName: __ZNSt3__16vectorIN3STL5PointENS_9allocatorIS2_EEEC2B8ue170006Ev, symObjAddr: 0xBE78, symBinAddr: 0x10000DD88, symSize: 0x44 }
  - { offsetInCU: 0x16145, offset: 0x1FDE2, size: 0x8, addend: 0x0, symName: __ZNSt3__117__compressed_pairIPN3STL5PointENS_9allocatorIS2_EEEC1B8ue170006IDnNS_18__default_init_tagEEEOT_OT0_, symObjAddr: 0xBEBC, symBinAddr: 0x10000DDCC, symSize: 0x3C }
  - { offsetInCU: 0x1619B, offset: 0x1FE38, size: 0x8, addend: 0x0, symName: __ZNSt3__117__compressed_pairIPN3STL5PointENS_9allocatorIS2_EEEC2B8ue170006IDnNS_18__default_init_tagEEEOT_OT0_, symObjAddr: 0xBEF8, symBinAddr: 0x10000DE08, symSize: 0x40 }
  - { offsetInCU: 0x161F1, offset: 0x1FE8E, size: 0x8, addend: 0x0, symName: __ZNSt3__122__compressed_pair_elemIPN3STL5PointELi0ELb0EEC2B8ue170006IDnvEEOT_, symObjAddr: 0xBF38, symBinAddr: 0x10000DE48, symSize: 0x1C }
  - { offsetInCU: 0x16231, offset: 0x1FECE, size: 0x8, addend: 0x0, symName: __ZNSt3__122__compressed_pair_elemINS_9allocatorIN3STL5PointEEELi1ELb1EEC2B8ue170006ENS_18__default_init_tagE, symObjAddr: 0xBF54, symBinAddr: 0x10000DE64, symSize: 0x2C }
  - { offsetInCU: 0x16263, offset: 0x1FF00, size: 0x8, addend: 0x0, symName: __ZNSt3__19allocatorIN3STL5PointEEC2B8ue170006Ev, symObjAddr: 0xBF80, symBinAddr: 0x10000DE90, symSize: 0x2C }
  - { offsetInCU: 0x1628B, offset: 0x1FF28, size: 0x8, addend: 0x0, symName: __ZNSt3__116__non_trivial_ifILb1ENS_9allocatorIN3STL5PointEEEEC2B8ue170006Ev, symObjAddr: 0xBFAC, symBinAddr: 0x10000DEBC, symSize: 0x14 }
  - { offsetInCU: 0x162B3, offset: 0x1FF50, size: 0x8, addend: 0x0, symName: __ZNSt3__16vectorIN3STL5PointENS_9allocatorIS2_EEE11__make_iterB8ue170006EPS2_, symObjAddr: 0xC4B4, symBinAddr: 0x10000DED0, symSize: 0x30 }
  - { offsetInCU: 0x162E6, offset: 0x1FF83, size: 0x8, addend: 0x0, symName: __ZNSt3__111__wrap_iterIPN3STL5PointEEC1B8ue170006ES3_, symObjAddr: 0xC4E4, symBinAddr: 0x10000DF00, symSize: 0x34 }
  - { offsetInCU: 0x1631C, offset: 0x1FFB9, size: 0x8, addend: 0x0, symName: __ZNSt3__111__wrap_iterIPN3STL5PointEEC2B8ue170006ES3_, symObjAddr: 0xC518, symBinAddr: 0x10000DF34, symSize: 0x20 }
  - { offsetInCU: 0x16352, offset: 0x1FFEF, size: 0x8, addend: 0x0, symName: __ZNSt3__118__unwrap_iter_implINS_11__wrap_iterIPN3STL5PointEEELb1EE8__rewrapB8ue170006ES5_S4_, symObjAddr: 0xC640, symBinAddr: 0x10000E05C, symSize: 0x5C }
  - { offsetInCU: 0x16382, offset: 0x2001F, size: 0x8, addend: 0x0, symName: __ZNKSt3__111__wrap_iterIPN3STL5PointEEplB8ue170006El, symObjAddr: 0xC69C, symBinAddr: 0x10000E0B8, symSize: 0x3C }
  - { offsetInCU: 0x163C2, offset: 0x2005F, size: 0x8, addend: 0x0, symName: __ZNSt3__111__wrap_iterIPN3STL5PointEEpLB8ue170006El, symObjAddr: 0xC6FC, symBinAddr: 0x10000E118, symSize: 0x28 }
  - { offsetInCU: 0x163FE, offset: 0x2009B, size: 0x8, addend: 0x0, symName: __ZNSt3__119__to_address_helperINS_11__wrap_iterIPN3STL5PointEEEvE6__callB8ue170006ERKS5_, symObjAddr: 0xC724, symBinAddr: 0x10000E140, symSize: 0x30 }
  - { offsetInCU: 0x16420, offset: 0x200BD, size: 0x8, addend: 0x0, symName: __ZNSt3__114pointer_traitsINS_11__wrap_iterIPN3STL5PointEEEE10to_addressB8ue170006ES5_, symObjAddr: 0xC754, symBinAddr: 0x10000E170, symSize: 0x2C }
  - { offsetInCU: 0x16442, offset: 0x200DF, size: 0x8, addend: 0x0, symName: __ZNKSt3__111__wrap_iterIPN3STL5PointEE4baseB8ue170006Ev, symObjAddr: 0xC780, symBinAddr: 0x10000E19C, symSize: 0x18 }
  - { offsetInCU: 0x16466, offset: 0x20103, size: 0x8, addend: 0x0, symName: __ZNKSt3__110__identityclB8ue170006IRN3STL5PointEEEOT_S6_, symObjAddr: 0xC7C4, symBinAddr: 0x10000E1E0, symSize: 0x18 }
  - { offsetInCU: 0x164A1, offset: 0x2013E, size: 0x8, addend: 0x0, symName: __ZNSt3__118__unwrap_iter_implINS_11__wrap_iterIPN3STL5PointEEELb1EE8__unwrapB8ue170006ES5_, symObjAddr: 0xC7DC, symBinAddr: 0x10000E1F8, symSize: 0x28 }
  - { offsetInCU: 0x164C3, offset: 0x20160, size: 0x8, addend: 0x0, symName: __ZNSt3__16vectorIN3STL5PointENS_9allocatorIS2_EEE9__end_capB8ue170006Ev, symObjAddr: 0xC804, symBinAddr: 0x10000E220, symSize: 0x28 }
  - { offsetInCU: 0x164E7, offset: 0x20184, size: 0x8, addend: 0x0, symName: __ZNSt3__16vectorIN3STL5PointENS_9allocatorIS2_EEE22__construct_one_at_endB8ue170006IJRKS2_EEEvDpOT_, symObjAddr: 0xC82C, symBinAddr: 0x10000E248, symSize: 0x98 }
  - { offsetInCU: 0x16534, offset: 0x201D1, size: 0x8, addend: 0x0, symName: __ZNSt3__16vectorIN3STL5PointENS_9allocatorIS2_EEE21__push_back_slow_pathIRKS2_EEvOT_, symObjAddr: 0xC8C4, symBinAddr: 0x10000E2E0, symSize: 0xE0 }
  - { offsetInCU: 0x16590, offset: 0x2022D, size: 0x8, addend: 0x0, symName: __ZNSt3__117__compressed_pairIPN3STL5PointENS_9allocatorIS2_EEE5firstB8ue170006Ev, symObjAddr: 0xC9A4, symBinAddr: 0x10000E3C0, symSize: 0x24 }
  - { offsetInCU: 0x165B4, offset: 0x20251, size: 0x8, addend: 0x0, symName: __ZNSt3__122__compressed_pair_elemIPN3STL5PointELi0ELb0EE5__getB8ue170006Ev, symObjAddr: 0xC9C8, symBinAddr: 0x10000E3E4, symSize: 0x14 }
  - { offsetInCU: 0x165F1, offset: 0x2028E, size: 0x8, addend: 0x0, symName: __ZNSt3__16vectorIN3STL5PointENS_9allocatorIS2_EEE21_ConstructTransactionC1B8ue170006ERS5_m, symObjAddr: 0xC9DC, symBinAddr: 0x10000E3F8, symSize: 0x3C }
  - { offsetInCU: 0x16637, offset: 0x202D4, size: 0x8, addend: 0x0, symName: __ZNSt3__116allocator_traitsINS_9allocatorIN3STL5PointEEEE9constructB8ue170006IS3_JRKS3_EvEEvRS4_PT_DpOT0_, symObjAddr: 0xCA18, symBinAddr: 0x10000E434, symSize: 0x34 }
  - { offsetInCU: 0x1668D, offset: 0x2032A, size: 0x8, addend: 0x0, symName: __ZNSt3__16vectorIN3STL5PointENS_9allocatorIS2_EEE21_ConstructTransactionD1B8ue170006Ev, symObjAddr: 0xCA4C, symBinAddr: 0x10000E468, symSize: 0x2C }
  - { offsetInCU: 0x166B5, offset: 0x20352, size: 0x8, addend: 0x0, symName: __ZNSt3__16vectorIN3STL5PointENS_9allocatorIS2_EEE21_ConstructTransactionC2B8ue170006ERS5_m, symObjAddr: 0xCA78, symBinAddr: 0x10000E494, symSize: 0x44 }
  - { offsetInCU: 0x166FB, offset: 0x20398, size: 0x8, addend: 0x0, symName: __ZNSt3__19allocatorIN3STL5PointEE9constructB8ue170006IS2_JRKS2_EEEvPT_DpOT0_, symObjAddr: 0xCABC, symBinAddr: 0x10000E4D8, symSize: 0x30 }
  - { offsetInCU: 0x1674F, offset: 0x203EC, size: 0x8, addend: 0x0, symName: __ZNSt3__16vectorIN3STL5PointENS_9allocatorIS2_EEE21_ConstructTransactionD2B8ue170006Ev, symObjAddr: 0xCAEC, symBinAddr: 0x10000E508, symSize: 0x20 }
  - { offsetInCU: 0x16777, offset: 0x20414, size: 0x8, addend: 0x0, symName: __ZNKSt3__16vectorIN3STL5PointENS_9allocatorIS2_EEE11__recommendB8ue170006Em, symObjAddr: 0xCB0C, symBinAddr: 0x10000E528, symSize: 0xB4 }
  - { offsetInCU: 0x167CA, offset: 0x20467, size: 0x8, addend: 0x0, symName: __ZNSt3__114__split_bufferIN3STL5PointERNS_9allocatorIS2_EEEC1EmmS5_, symObjAddr: 0xCBC0, symBinAddr: 0x10000E5DC, symSize: 0x44 }
  - { offsetInCU: 0x1681F, offset: 0x204BC, size: 0x8, addend: 0x0, symName: __ZNSt3__114__split_bufferIN3STL5PointERNS_9allocatorIS2_EEED1Ev, symObjAddr: 0xCD14, symBinAddr: 0x10000E730, symSize: 0x2C }
  - { offsetInCU: 0x1684A, offset: 0x204E7, size: 0x8, addend: 0x0, symName: __ZNKSt3__16vectorIN3STL5PointENS_9allocatorIS2_EEE8max_sizeEv, symObjAddr: 0xCD40, symBinAddr: 0x10000E75C, symSize: 0x74 }
  - { offsetInCU: 0x16870, offset: 0x2050D, size: 0x8, addend: 0x0, symName: __ZNKSt3__16vectorIN3STL5PointENS_9allocatorIS2_EEE20__throw_length_errorB8ue170006Ev, symObjAddr: 0xCDB4, symBinAddr: 0x10000E7D0, symSize: 0x1C }
  - { offsetInCU: 0x1689E, offset: 0x2053B, size: 0x8, addend: 0x0, symName: __ZNSt3__116allocator_traitsINS_9allocatorIN3STL5PointEEEE8max_sizeB8ue170006IS4_vEEmRKS4_, symObjAddr: 0xCDD0, symBinAddr: 0x10000E7EC, symSize: 0x24 }
  - { offsetInCU: 0x168CB, offset: 0x20568, size: 0x8, addend: 0x0, symName: __ZNKSt3__16vectorIN3STL5PointENS_9allocatorIS2_EEE7__allocB8ue170006Ev, symObjAddr: 0xCDF4, symBinAddr: 0x10000E810, symSize: 0x28 }
  - { offsetInCU: 0x168EF, offset: 0x2058C, size: 0x8, addend: 0x0, symName: __ZNKSt3__19allocatorIN3STL5PointEE8max_sizeB8ue170006Ev, symObjAddr: 0xCE1C, symBinAddr: 0x10000E838, symSize: 0x14 }
  - { offsetInCU: 0x16913, offset: 0x205B0, size: 0x8, addend: 0x0, symName: __ZNKSt3__117__compressed_pairIPN3STL5PointENS_9allocatorIS2_EEE6secondB8ue170006Ev, symObjAddr: 0xCE30, symBinAddr: 0x10000E84C, symSize: 0x24 }
  - { offsetInCU: 0x16937, offset: 0x205D4, size: 0x8, addend: 0x0, symName: __ZNKSt3__122__compressed_pair_elemINS_9allocatorIN3STL5PointEEELi1ELb1EE5__getB8ue170006Ev, symObjAddr: 0xCE54, symBinAddr: 0x10000E870, symSize: 0x14 }
  - { offsetInCU: 0x1695B, offset: 0x205F8, size: 0x8, addend: 0x0, symName: __ZNSt3__114__split_bufferIN3STL5PointERNS_9allocatorIS2_EEEC2EmmS5_, symObjAddr: 0xCE68, symBinAddr: 0x10000E884, symSize: 0xD4 }
  - { offsetInCU: 0x169CD, offset: 0x2066A, size: 0x8, addend: 0x0, symName: __ZNSt3__117__compressed_pairIPN3STL5PointERNS_9allocatorIS2_EEEC1B8ue170006IDnS6_EEOT_OT0_, symObjAddr: 0xCF3C, symBinAddr: 0x10000E958, symSize: 0x3C }
  - { offsetInCU: 0x16A23, offset: 0x206C0, size: 0x8, addend: 0x0, symName: __ZNSt3__114__split_bufferIN3STL5PointERNS_9allocatorIS2_EEE7__allocB8ue170006Ev, symObjAddr: 0xCFB8, symBinAddr: 0x10000E9D4, symSize: 0x28 }
  - { offsetInCU: 0x16A47, offset: 0x206E4, size: 0x8, addend: 0x0, symName: __ZNSt3__114__split_bufferIN3STL5PointERNS_9allocatorIS2_EEE9__end_capB8ue170006Ev, symObjAddr: 0xCFE0, symBinAddr: 0x10000E9FC, symSize: 0x28 }
  - { offsetInCU: 0x16A6B, offset: 0x20708, size: 0x8, addend: 0x0, symName: __ZNSt3__117__compressed_pairIPN3STL5PointERNS_9allocatorIS2_EEEC2B8ue170006IDnS6_EEOT_OT0_, symObjAddr: 0xD008, symBinAddr: 0x10000EA24, symSize: 0x48 }
  - { offsetInCU: 0x16AC1, offset: 0x2075E, size: 0x8, addend: 0x0, symName: __ZNSt3__122__compressed_pair_elemIRNS_9allocatorIN3STL5PointEEELi1ELb0EEC2B8ue170006IS5_vEEOT_, symObjAddr: 0xD050, symBinAddr: 0x10000EA6C, symSize: 0x20 }
  - { offsetInCU: 0x16B01, offset: 0x2079E, size: 0x8, addend: 0x0, symName: __ZNSt3__19allocatorIN3STL5PointEE8allocateB8ue170006Em, symObjAddr: 0xD070, symBinAddr: 0x10000EA8C, symSize: 0x84 }
  - { offsetInCU: 0x16B33, offset: 0x207D0, size: 0x8, addend: 0x0, symName: __ZNSt3__117__compressed_pairIPN3STL5PointERNS_9allocatorIS2_EEE6secondB8ue170006Ev, symObjAddr: 0xD0F4, symBinAddr: 0x10000EB10, symSize: 0x28 }
  - { offsetInCU: 0x16B57, offset: 0x207F4, size: 0x8, addend: 0x0, symName: __ZNSt3__122__compressed_pair_elemIRNS_9allocatorIN3STL5PointEEELi1ELb0EE5__getB8ue170006Ev, symObjAddr: 0xD11C, symBinAddr: 0x10000EB38, symSize: 0x18 }
  - { offsetInCU: 0x16B7B, offset: 0x20818, size: 0x8, addend: 0x0, symName: __ZNSt3__117__compressed_pairIPN3STL5PointERNS_9allocatorIS2_EEE5firstB8ue170006Ev, symObjAddr: 0xD134, symBinAddr: 0x10000EB50, symSize: 0x24 }
  - { offsetInCU: 0x16B9F, offset: 0x2083C, size: 0x8, addend: 0x0, symName: __ZNSt3__116reverse_iteratorIPN3STL5PointEEC1B8ue170006ES3_, symObjAddr: 0xD28C, symBinAddr: 0x10000ECA8, symSize: 0x34 }
  - { offsetInCU: 0x16BD5, offset: 0x20872, size: 0x8, addend: 0x0, symName: __ZNKSt3__116reverse_iteratorIPN3STL5PointEE4baseB8ue170006Ev, symObjAddr: 0xD2C0, symBinAddr: 0x10000ECDC, symSize: 0x18 }
  - { offsetInCU: 0x16BF9, offset: 0x20896, size: 0x8, addend: 0x0, symName: __ZNKSt3__16vectorIN3STL5PointENS_9allocatorIS2_EEE14__annotate_newB8ue170006Em, symObjAddr: 0xD314, symBinAddr: 0x10000ED30, symSize: 0xAC }
  - { offsetInCU: 0x16C2C, offset: 0x208C9, size: 0x8, addend: 0x0, symName: __ZNSt3__129_AllocatorDestroyRangeReverseINS_9allocatorIN3STL5PointEEENS_16reverse_iteratorIPS3_EEEC1B8ue170006ERS4_RS7_SA_, symObjAddr: 0xD40C, symBinAddr: 0x10000EE28, symSize: 0x44 }
  - { offsetInCU: 0x16C81, offset: 0x2091E, size: 0x8, addend: 0x0, symName: __ZNKSt3__116reverse_iteratorIPN3STL5PointEEdeB8ue170006Ev, symObjAddr: 0xD4BC, symBinAddr: 0x10000EED8, symSize: 0x28 }
  - { offsetInCU: 0x16CB3, offset: 0x20950, size: 0x8, addend: 0x0, symName: __ZNSt3__116reverse_iteratorIPN3STL5PointEEppB8ue170006Ev, symObjAddr: 0xD4E4, symBinAddr: 0x10000EF00, symSize: 0x20 }
  - { offsetInCU: 0x16CD7, offset: 0x20974, size: 0x8, addend: 0x0, symName: __ZNSt3__128__exception_guard_exceptionsINS_29_AllocatorDestroyRangeReverseINS_9allocatorIN3STL5PointEEENS_16reverse_iteratorIPS4_EEEEE10__completeB8ue170006Ev, symObjAddr: 0xD504, symBinAddr: 0x10000EF20, symSize: 0x1C }
  - { offsetInCU: 0x16CFB, offset: 0x20998, size: 0x8, addend: 0x0, symName: __ZNSt3__128__exception_guard_exceptionsINS_29_AllocatorDestroyRangeReverseINS_9allocatorIN3STL5PointEEENS_16reverse_iteratorIPS4_EEEEED1B8ue170006Ev, symObjAddr: 0xD520, symBinAddr: 0x10000EF3C, symSize: 0x2C }
  - { offsetInCU: 0x16D23, offset: 0x209C0, size: 0x8, addend: 0x0, symName: __ZNSt3__128__exception_guard_exceptionsINS_29_AllocatorDestroyRangeReverseINS_9allocatorIN3STL5PointEEENS_16reverse_iteratorIPS4_EEEEEC1B8ue170006ES9_, symObjAddr: 0xD54C, symBinAddr: 0x10000EF68, symSize: 0x34 }
  - { offsetInCU: 0x16D5A, offset: 0x209F7, size: 0x8, addend: 0x0, symName: __ZNSt3__128__exception_guard_exceptionsINS_29_AllocatorDestroyRangeReverseINS_9allocatorIN3STL5PointEEENS_16reverse_iteratorIPS4_EEEEEC2B8ue170006ES9_, symObjAddr: 0xD580, symBinAddr: 0x10000EF9C, symSize: 0x30 }
  - { offsetInCU: 0x16D91, offset: 0x20A2E, size: 0x8, addend: 0x0, symName: __ZNSt3__129_AllocatorDestroyRangeReverseINS_9allocatorIN3STL5PointEEENS_16reverse_iteratorIPS3_EEEC2B8ue170006ERS4_RS7_SA_, symObjAddr: 0xD5B0, symBinAddr: 0x10000EFCC, symSize: 0x38 }
  - { offsetInCU: 0x16DEB, offset: 0x20A88, size: 0x8, addend: 0x0, symName: __ZNSt3__119__to_address_helperINS_16reverse_iteratorIPN3STL5PointEEEvE6__callB8ue170006ERKS5_, symObjAddr: 0xD5E8, symBinAddr: 0x10000F004, symSize: 0x4C }
  - { offsetInCU: 0x16E0D, offset: 0x20AAA, size: 0x8, addend: 0x0, symName: __ZNKSt3__116reverse_iteratorIPN3STL5PointEEptB8ue170006Ev, symObjAddr: 0xD634, symBinAddr: 0x10000F050, symSize: 0x24 }
  - { offsetInCU: 0x16E31, offset: 0x20ACE, size: 0x8, addend: 0x0, symName: __ZNSt3__128__exception_guard_exceptionsINS_29_AllocatorDestroyRangeReverseINS_9allocatorIN3STL5PointEEENS_16reverse_iteratorIPS4_EEEEED2B8ue170006Ev, symObjAddr: 0xD658, symBinAddr: 0x10000F074, symSize: 0x48 }
  - { offsetInCU: 0x16E59, offset: 0x20AF6, size: 0x8, addend: 0x0, symName: __ZNKSt3__129_AllocatorDestroyRangeReverseINS_9allocatorIN3STL5PointEEENS_16reverse_iteratorIPS3_EEEclB8ue170006Ev, symObjAddr: 0xD6A0, symBinAddr: 0x10000F0BC, symSize: 0xB4 }
  - { offsetInCU: 0x16E7E, offset: 0x20B1B, size: 0x8, addend: 0x0, symName: __ZNSt3__116reverse_iteratorINS0_IPN3STL5PointEEEEC1B8ue170006ES4_, symObjAddr: 0xD7C4, symBinAddr: 0x10000F1E0, symSize: 0x3C }
  - { offsetInCU: 0x16EB4, offset: 0x20B51, size: 0x8, addend: 0x0, symName: __ZNSt3__116reverse_iteratorINS0_IPN3STL5PointEEEEppB8ue170006Ev, symObjAddr: 0xD884, symBinAddr: 0x10000F2A0, symSize: 0x30 }
  - { offsetInCU: 0x16ED8, offset: 0x20B75, size: 0x8, addend: 0x0, symName: __ZNKSt3__116reverse_iteratorINS0_IPN3STL5PointEEEE4baseB8ue170006Ev, symObjAddr: 0xD8B4, symBinAddr: 0x10000F2D0, symSize: 0x24 }
  - { offsetInCU: 0x16F01, offset: 0x20B9E, size: 0x8, addend: 0x0, symName: __ZNSt3__119__to_address_helperINS_16reverse_iteratorINS1_IPN3STL5PointEEEEEvE6__callB8ue170006ERKS6_, symObjAddr: 0xD8D8, symBinAddr: 0x10000F2F4, symSize: 0x4C }
  - { offsetInCU: 0x16F23, offset: 0x20BC0, size: 0x8, addend: 0x0, symName: __ZNKSt3__116reverse_iteratorINS0_IPN3STL5PointEEEEptB8ue170006Ev, symObjAddr: 0xD924, symBinAddr: 0x10000F340, symSize: 0x24 }
  - { offsetInCU: 0x16F47, offset: 0x20BE4, size: 0x8, addend: 0x0, symName: __ZNKSt3__116reverse_iteratorINS0_IPN3STL5PointEEEEdeB8ue170006Ev, symObjAddr: 0xD948, symBinAddr: 0x10000F364, symSize: 0x34 }
  - { offsetInCU: 0x16F79, offset: 0x20C16, size: 0x8, addend: 0x0, symName: __ZNSt3__116reverse_iteratorIPN3STL5PointEEmmB8ue170006Ev, symObjAddr: 0xD97C, symBinAddr: 0x10000F398, symSize: 0x20 }
  - { offsetInCU: 0x16F9D, offset: 0x20C3A, size: 0x8, addend: 0x0, symName: __ZNSt3__116reverse_iteratorINS0_IPN3STL5PointEEEEC2B8ue170006ES4_, symObjAddr: 0xD99C, symBinAddr: 0x10000F3B8, symSize: 0x2C }
  - { offsetInCU: 0x16FD3, offset: 0x20C70, size: 0x8, addend: 0x0, symName: __ZNSt3__116reverse_iteratorIPN3STL5PointEEC2B8ue170006ES3_, symObjAddr: 0xD9C8, symBinAddr: 0x10000F3E4, symSize: 0x28 }
  - { offsetInCU: 0x17009, offset: 0x20CA6, size: 0x8, addend: 0x0, symName: __ZNSt3__114__split_bufferIN3STL5PointERNS_9allocatorIS2_EEED2Ev, symObjAddr: 0xD9F0, symBinAddr: 0x10000F40C, symSize: 0x80 }
  - { offsetInCU: 0x17034, offset: 0x20CD1, size: 0x8, addend: 0x0, symName: __ZNSt3__114__split_bufferIN3STL5PointERNS_9allocatorIS2_EEE5clearB8ue170006Ev, symObjAddr: 0xDA70, symBinAddr: 0x10000F48C, symSize: 0x28 }
  - { offsetInCU: 0x17058, offset: 0x20CF5, size: 0x8, addend: 0x0, symName: __ZNKSt3__114__split_bufferIN3STL5PointERNS_9allocatorIS2_EEE8capacityB8ue170006Ev, symObjAddr: 0xDA98, symBinAddr: 0x10000F4B4, symSize: 0x40 }
  - { offsetInCU: 0x1707C, offset: 0x20D19, size: 0x8, addend: 0x0, symName: __ZNSt3__114__split_bufferIN3STL5PointERNS_9allocatorIS2_EEE17__destruct_at_endB8ue170006EPS2_, symObjAddr: 0xDAD8, symBinAddr: 0x10000F4F4, symSize: 0x2C }
  - { offsetInCU: 0x170AE, offset: 0x20D4B, size: 0x8, addend: 0x0, symName: __ZNSt3__114__split_bufferIN3STL5PointERNS_9allocatorIS2_EEE17__destruct_at_endB8ue170006EPS2_NS_17integral_constantIbLb0EEE, symObjAddr: 0xDB04, symBinAddr: 0x10000F520, symSize: 0x94 }
  - { offsetInCU: 0x170EC, offset: 0x20D89, size: 0x8, addend: 0x0, symName: __ZNKSt3__114__split_bufferIN3STL5PointERNS_9allocatorIS2_EEE9__end_capB8ue170006Ev, symObjAddr: 0xDB98, symBinAddr: 0x10000F5B4, symSize: 0x28 }
  - { offsetInCU: 0x17110, offset: 0x20DAD, size: 0x8, addend: 0x0, symName: __ZNKSt3__117__compressed_pairIPN3STL5PointERNS_9allocatorIS2_EEE5firstB8ue170006Ev, symObjAddr: 0xDBC0, symBinAddr: 0x10000F5DC, symSize: 0x24 }
  - { offsetInCU: 0x17134, offset: 0x20DD1, size: 0x8, addend: 0x0, symName: __ZNSt3__18_IterOpsINS_17_ClassicAlgPolicyEE4nextB8ue170006IPN3STL5PointEEET_S7_S7_, symObjAddr: 0xDE10, symBinAddr: 0x10000F82C, symSize: 0x18 }
  - { offsetInCU: 0x1716A, offset: 0x20E07, size: 0x8, addend: 0x0, symName: __ZNSt3__18_IterOpsINS_17_ClassicAlgPolicyEE9iter_swapB8ue170006IRPN3STL5PointES7_EEvOT_OT0_, symObjAddr: 0xE008, symBinAddr: 0x10000FA24, symSize: 0x34 }
  - { offsetInCU: 0x171B1, offset: 0x20E4E, size: 0x8, addend: 0x0, symName: __ZNSt3__18_IterOpsINS_17_ClassicAlgPolicyEE11__iter_moveB8ue170006IRPN3STL5PointEEENS_9enable_ifIXsr12is_referenceIDTdeclsr3stdE7declvalIRT_EEEEE5valueEDTclsr3stdE4movedeclsr3stdE7declvalISA_EEEEE4typeEOS9_, symObjAddr: 0xE3F8, symBinAddr: 0x10000FE14, symSize: 0x28 }
  - { offsetInCU: 0x171DC, offset: 0x20E79, size: 0x8, addend: 0x0, symName: __ZNSt3__18_IterOpsINS_17_ClassicAlgPolicyEE25__validate_iter_referenceB8ue170006IRPN3STL5PointEEEvv, symObjAddr: 0xE420, symBinAddr: 0x10000FE3C, symSize: 0x4 }
  - { offsetInCU: 0x171FF, offset: 0x20E9C, size: 0x8, addend: 0x0, symName: __ZNSt3__18_IterOpsINS_17_ClassicAlgPolicyEE9iter_swapB8ue170006IRPN3STL5PointES6_EEvOT_OT0_, symObjAddr: 0xF2C8, symBinAddr: 0x100010CE4, symSize: 0x34 }
  - { offsetInCU: 0x17241, offset: 0x20EDE, size: 0x8, addend: 0x0, symName: __ZNSt3__18_IterOpsINS_17_ClassicAlgPolicyEE9iter_swapB8ue170006IPN3STL5PointES6_EEvOT_OT0_, symObjAddr: 0x1097C, symBinAddr: 0x100012398, symSize: 0x34 }
  - { offsetInCU: 0x172A1, offset: 0x20F3E, size: 0x8, addend: 0x0, symName: __ZNSt3__14pairIPN3STL5PointEbEC1B8ue170006ERKS3_RKb, symObjAddr: 0x109CC, symBinAddr: 0x1000123E8, symSize: 0x3C }
  - { offsetInCU: 0x172E5, offset: 0x20F82, size: 0x8, addend: 0x0, symName: __ZNSt3__14pairIPN3STL5PointEbEC2B8ue170006ERKS3_RKb, symObjAddr: 0x10A08, symBinAddr: 0x100012424, symSize: 0x38 }
  - { offsetInCU: 0x17329, offset: 0x20FC6, size: 0x8, addend: 0x0, symName: __ZNSt3__113basic_ostreamIcNS_11char_traitsIcEEEC2B8ue170006EPNS_15basic_streambufIcS2_EE, symObjAddr: 0x10A40, symBinAddr: 0x10001245C, symSize: 0x60 }
  - { offsetInCU: 0x1736B, offset: 0x21008, size: 0x8, addend: 0x0, symName: __ZNKSt3__18ios_base4failB8ue170006Ev, symObjAddr: 0x10AA0, symBinAddr: 0x1000124BC, symSize: 0x28 }
...
